ARM GAS  /var/folders/mx/xtmnkh9x46d2ktwbhj73try40000gn/T//cc0G0E9P.s 			page 1


   1              		.cpu cortex-m3
   2              		.eabi_attribute 20, 1
   3              		.eabi_attribute 21, 1
   4              		.eabi_attribute 23, 3
   5              		.eabi_attribute 24, 1
   6              		.eabi_attribute 25, 1
   7              		.eabi_attribute 26, 1
   8              		.eabi_attribute 30, 1
   9              		.eabi_attribute 34, 1
  10              		.eabi_attribute 18, 4
  11              		.file	"SEGGER_RTT_printf.c"
  12              		.text
  13              	.Ltext0:
  14              		.cfi_sections	.debug_frame
  15              		.section	.text._StoreChar,"ax",%progbits
  16              		.align	1
  17              		.arch armv7-m
  18              		.syntax unified
  19              		.thumb
  20              		.thumb_func
  21              		.fpu softvfp
  23              	_StoreChar:
  24              	.LVL0:
  25              	.LFB0:
  26              		.file 1 "ARM_SEGGER_RTT/SEGGER_RTT_printf.c"
   1:ARM_SEGGER_RTT/SEGGER_RTT_printf.c **** /*********************************************************************
   2:ARM_SEGGER_RTT/SEGGER_RTT_printf.c **** *                SEGGER Microcontroller GmbH & Co. KG                *
   3:ARM_SEGGER_RTT/SEGGER_RTT_printf.c **** *                        The Embedded Experts                        *
   4:ARM_SEGGER_RTT/SEGGER_RTT_printf.c **** **********************************************************************
   5:ARM_SEGGER_RTT/SEGGER_RTT_printf.c **** *                                                                    *
   6:ARM_SEGGER_RTT/SEGGER_RTT_printf.c **** *       (c) 2014 - 2017  SEGGER Microcontroller GmbH & Co. KG        *
   7:ARM_SEGGER_RTT/SEGGER_RTT_printf.c **** *                                                                    *
   8:ARM_SEGGER_RTT/SEGGER_RTT_printf.c **** *       www.segger.com     Support: support@segger.com               *
   9:ARM_SEGGER_RTT/SEGGER_RTT_printf.c **** *                                                                    *
  10:ARM_SEGGER_RTT/SEGGER_RTT_printf.c **** **********************************************************************
  11:ARM_SEGGER_RTT/SEGGER_RTT_printf.c **** *                                                                    *
  12:ARM_SEGGER_RTT/SEGGER_RTT_printf.c **** *       SEGGER RTT * Real Time Transfer for embedded targets         *
  13:ARM_SEGGER_RTT/SEGGER_RTT_printf.c **** *                                                                    *
  14:ARM_SEGGER_RTT/SEGGER_RTT_printf.c **** **********************************************************************
  15:ARM_SEGGER_RTT/SEGGER_RTT_printf.c **** *                                                                    *
  16:ARM_SEGGER_RTT/SEGGER_RTT_printf.c **** * All rights reserved.                                               *
  17:ARM_SEGGER_RTT/SEGGER_RTT_printf.c **** *                                                                    *
  18:ARM_SEGGER_RTT/SEGGER_RTT_printf.c **** * SEGGER strongly recommends to not make any changes                 *
  19:ARM_SEGGER_RTT/SEGGER_RTT_printf.c **** * to or modify the source code of this software in order to stay     *
  20:ARM_SEGGER_RTT/SEGGER_RTT_printf.c **** * compatible with the RTT protocol and J-Link.                       *
  21:ARM_SEGGER_RTT/SEGGER_RTT_printf.c **** *                                                                    *
  22:ARM_SEGGER_RTT/SEGGER_RTT_printf.c **** * Redistribution and use in source and binary forms, with or         *
  23:ARM_SEGGER_RTT/SEGGER_RTT_printf.c **** * without modification, are permitted provided that the following    *
  24:ARM_SEGGER_RTT/SEGGER_RTT_printf.c **** * conditions are met:                                                *
  25:ARM_SEGGER_RTT/SEGGER_RTT_printf.c **** *                                                                    *
  26:ARM_SEGGER_RTT/SEGGER_RTT_printf.c **** * o Redistributions of source code must retain the above copyright   *
  27:ARM_SEGGER_RTT/SEGGER_RTT_printf.c **** *   notice, this list of conditions and the following disclaimer.    *
  28:ARM_SEGGER_RTT/SEGGER_RTT_printf.c **** *                                                                    *
  29:ARM_SEGGER_RTT/SEGGER_RTT_printf.c **** * o Redistributions in binary form must reproduce the above          *
  30:ARM_SEGGER_RTT/SEGGER_RTT_printf.c **** *   copyright notice, this list of conditions and the following      *
  31:ARM_SEGGER_RTT/SEGGER_RTT_printf.c **** *   disclaimer in the documentation and/or other materials provided  *
  32:ARM_SEGGER_RTT/SEGGER_RTT_printf.c **** *   with the distribution.                                           *
ARM GAS  /var/folders/mx/xtmnkh9x46d2ktwbhj73try40000gn/T//cc0G0E9P.s 			page 2


  33:ARM_SEGGER_RTT/SEGGER_RTT_printf.c **** *                                                                    *
  34:ARM_SEGGER_RTT/SEGGER_RTT_printf.c **** * o Neither the name of SEGGER Microcontroller GmbH & Co. KG         *
  35:ARM_SEGGER_RTT/SEGGER_RTT_printf.c **** *   nor the names of its contributors may be used to endorse or      *
  36:ARM_SEGGER_RTT/SEGGER_RTT_printf.c **** *   promote products derived from this software without specific     *
  37:ARM_SEGGER_RTT/SEGGER_RTT_printf.c **** *   prior written permission.                                        *
  38:ARM_SEGGER_RTT/SEGGER_RTT_printf.c **** *                                                                    *
  39:ARM_SEGGER_RTT/SEGGER_RTT_printf.c **** * THIS SOFTWARE IS PROVIDED BY THE COPYRIGHT HOLDERS AND             *
  40:ARM_SEGGER_RTT/SEGGER_RTT_printf.c **** * CONTRIBUTORS "AS IS" AND ANY EXPRESS OR IMPLIED WARRANTIES,        *
  41:ARM_SEGGER_RTT/SEGGER_RTT_printf.c **** * INCLUDING, BUT NOT LIMITED TO, THE IMPLIED WARRANTIES OF           *
  42:ARM_SEGGER_RTT/SEGGER_RTT_printf.c **** * MERCHANTABILITY AND FITNESS FOR A PARTICULAR PURPOSE ARE           *
  43:ARM_SEGGER_RTT/SEGGER_RTT_printf.c **** * DISCLAIMED. IN NO EVENT SHALL SEGGER Microcontroller BE LIABLE FOR *
  44:ARM_SEGGER_RTT/SEGGER_RTT_printf.c **** * ANY DIRECT, INDIRECT, INCIDENTAL, SPECIAL, EXEMPLARY, OR           *
  45:ARM_SEGGER_RTT/SEGGER_RTT_printf.c **** * CONSEQUENTIAL DAMAGES (INCLUDING, BUT NOT LIMITED TO, PROCUREMENT  *
  46:ARM_SEGGER_RTT/SEGGER_RTT_printf.c **** * OF SUBSTITUTE GOODS OR SERVICES; LOSS OF USE, DATA, OR PROFITS;    *
  47:ARM_SEGGER_RTT/SEGGER_RTT_printf.c **** * OR BUSINESS INTERRUPTION) HOWEVER CAUSED AND ON ANY THEORY OF      *
  48:ARM_SEGGER_RTT/SEGGER_RTT_printf.c **** * LIABILITY, WHETHER IN CONTRACT, STRICT LIABILITY, OR TORT          *
  49:ARM_SEGGER_RTT/SEGGER_RTT_printf.c **** * (INCLUDING NEGLIGENCE OR OTHERWISE) ARISING IN ANY WAY OUT OF THE  *
  50:ARM_SEGGER_RTT/SEGGER_RTT_printf.c **** * USE OF THIS SOFTWARE, EVEN IF ADVISED OF THE POSSIBILITY OF SUCH   *
  51:ARM_SEGGER_RTT/SEGGER_RTT_printf.c **** * DAMAGE.                                                            *
  52:ARM_SEGGER_RTT/SEGGER_RTT_printf.c **** *                                                                    *
  53:ARM_SEGGER_RTT/SEGGER_RTT_printf.c **** **********************************************************************
  54:ARM_SEGGER_RTT/SEGGER_RTT_printf.c **** *                                                                    *
  55:ARM_SEGGER_RTT/SEGGER_RTT_printf.c **** *       RTT version: 6.14                                           *
  56:ARM_SEGGER_RTT/SEGGER_RTT_printf.c **** *                                                                    *
  57:ARM_SEGGER_RTT/SEGGER_RTT_printf.c **** **********************************************************************
  58:ARM_SEGGER_RTT/SEGGER_RTT_printf.c **** ---------------------------END-OF-HEADER------------------------------
  59:ARM_SEGGER_RTT/SEGGER_RTT_printf.c **** File    : SEGGER_RTT_printf.c
  60:ARM_SEGGER_RTT/SEGGER_RTT_printf.c **** Purpose : Replacement for printf to write formatted data via RTT
  61:ARM_SEGGER_RTT/SEGGER_RTT_printf.c **** Revision: $Rev: 4351 $
  62:ARM_SEGGER_RTT/SEGGER_RTT_printf.c **** ----------------------------------------------------------------------
  63:ARM_SEGGER_RTT/SEGGER_RTT_printf.c **** */
  64:ARM_SEGGER_RTT/SEGGER_RTT_printf.c **** #include "SEGGER_RTT.h"
  65:ARM_SEGGER_RTT/SEGGER_RTT_printf.c **** #include "SEGGER_RTT_Conf.h"
  66:ARM_SEGGER_RTT/SEGGER_RTT_printf.c **** 
  67:ARM_SEGGER_RTT/SEGGER_RTT_printf.c **** /*********************************************************************
  68:ARM_SEGGER_RTT/SEGGER_RTT_printf.c **** *
  69:ARM_SEGGER_RTT/SEGGER_RTT_printf.c **** *       Defines, configurable
  70:ARM_SEGGER_RTT/SEGGER_RTT_printf.c **** *
  71:ARM_SEGGER_RTT/SEGGER_RTT_printf.c **** **********************************************************************
  72:ARM_SEGGER_RTT/SEGGER_RTT_printf.c **** */
  73:ARM_SEGGER_RTT/SEGGER_RTT_printf.c **** 
  74:ARM_SEGGER_RTT/SEGGER_RTT_printf.c **** #ifndef SEGGER_RTT_PRINTF_BUFFER_SIZE
  75:ARM_SEGGER_RTT/SEGGER_RTT_printf.c ****   #define SEGGER_RTT_PRINTF_BUFFER_SIZE (64)
  76:ARM_SEGGER_RTT/SEGGER_RTT_printf.c **** #endif
  77:ARM_SEGGER_RTT/SEGGER_RTT_printf.c **** 
  78:ARM_SEGGER_RTT/SEGGER_RTT_printf.c **** #include <stdlib.h>
  79:ARM_SEGGER_RTT/SEGGER_RTT_printf.c **** #include <stdarg.h>
  80:ARM_SEGGER_RTT/SEGGER_RTT_printf.c **** 
  81:ARM_SEGGER_RTT/SEGGER_RTT_printf.c **** 
  82:ARM_SEGGER_RTT/SEGGER_RTT_printf.c **** #define FORMAT_FLAG_LEFT_JUSTIFY   (1u << 0)
  83:ARM_SEGGER_RTT/SEGGER_RTT_printf.c **** #define FORMAT_FLAG_PAD_ZERO       (1u << 1)
  84:ARM_SEGGER_RTT/SEGGER_RTT_printf.c **** #define FORMAT_FLAG_PRINT_SIGN     (1u << 2)
  85:ARM_SEGGER_RTT/SEGGER_RTT_printf.c **** #define FORMAT_FLAG_ALTERNATE      (1u << 3)
  86:ARM_SEGGER_RTT/SEGGER_RTT_printf.c **** 
  87:ARM_SEGGER_RTT/SEGGER_RTT_printf.c **** /*********************************************************************
  88:ARM_SEGGER_RTT/SEGGER_RTT_printf.c **** *
  89:ARM_SEGGER_RTT/SEGGER_RTT_printf.c **** *       Types
ARM GAS  /var/folders/mx/xtmnkh9x46d2ktwbhj73try40000gn/T//cc0G0E9P.s 			page 3


  90:ARM_SEGGER_RTT/SEGGER_RTT_printf.c **** *
  91:ARM_SEGGER_RTT/SEGGER_RTT_printf.c **** **********************************************************************
  92:ARM_SEGGER_RTT/SEGGER_RTT_printf.c **** */
  93:ARM_SEGGER_RTT/SEGGER_RTT_printf.c **** 
  94:ARM_SEGGER_RTT/SEGGER_RTT_printf.c **** typedef struct {
  95:ARM_SEGGER_RTT/SEGGER_RTT_printf.c ****   char*     pBuffer;
  96:ARM_SEGGER_RTT/SEGGER_RTT_printf.c ****   unsigned  BufferSize;
  97:ARM_SEGGER_RTT/SEGGER_RTT_printf.c ****   unsigned  Cnt;
  98:ARM_SEGGER_RTT/SEGGER_RTT_printf.c **** 
  99:ARM_SEGGER_RTT/SEGGER_RTT_printf.c ****   int   ReturnValue;
 100:ARM_SEGGER_RTT/SEGGER_RTT_printf.c **** 
 101:ARM_SEGGER_RTT/SEGGER_RTT_printf.c ****   unsigned RTTBufferIndex;
 102:ARM_SEGGER_RTT/SEGGER_RTT_printf.c **** } SEGGER_RTT_PRINTF_DESC;
 103:ARM_SEGGER_RTT/SEGGER_RTT_printf.c **** 
 104:ARM_SEGGER_RTT/SEGGER_RTT_printf.c **** /*********************************************************************
 105:ARM_SEGGER_RTT/SEGGER_RTT_printf.c **** *
 106:ARM_SEGGER_RTT/SEGGER_RTT_printf.c **** *       Function prototypes
 107:ARM_SEGGER_RTT/SEGGER_RTT_printf.c **** *
 108:ARM_SEGGER_RTT/SEGGER_RTT_printf.c **** **********************************************************************
 109:ARM_SEGGER_RTT/SEGGER_RTT_printf.c **** */
 110:ARM_SEGGER_RTT/SEGGER_RTT_printf.c **** int SEGGER_RTT_vprintf(unsigned BufferIndex, const char * sFormat, va_list * pParamList);
 111:ARM_SEGGER_RTT/SEGGER_RTT_printf.c **** 
 112:ARM_SEGGER_RTT/SEGGER_RTT_printf.c **** /*********************************************************************
 113:ARM_SEGGER_RTT/SEGGER_RTT_printf.c **** *
 114:ARM_SEGGER_RTT/SEGGER_RTT_printf.c **** *       Static code
 115:ARM_SEGGER_RTT/SEGGER_RTT_printf.c **** *
 116:ARM_SEGGER_RTT/SEGGER_RTT_printf.c **** **********************************************************************
 117:ARM_SEGGER_RTT/SEGGER_RTT_printf.c **** */
 118:ARM_SEGGER_RTT/SEGGER_RTT_printf.c **** /*********************************************************************
 119:ARM_SEGGER_RTT/SEGGER_RTT_printf.c **** *
 120:ARM_SEGGER_RTT/SEGGER_RTT_printf.c **** *       _StoreChar
 121:ARM_SEGGER_RTT/SEGGER_RTT_printf.c **** */
 122:ARM_SEGGER_RTT/SEGGER_RTT_printf.c **** static void _StoreChar(SEGGER_RTT_PRINTF_DESC * p, char c) {
  27              		.loc 1 122 60 view -0
  28              		.cfi_startproc
  29              		@ args = 0, pretend = 0, frame = 0
  30              		@ frame_needed = 0, uses_anonymous_args = 0
  31              		.loc 1 122 60 is_stmt 0 view .LVU1
  32 0000 10B5     		push	{r4, lr}
  33              	.LCFI0:
  34              		.cfi_def_cfa_offset 8
  35              		.cfi_offset 4, -8
  36              		.cfi_offset 14, -4
  37 0002 0446     		mov	r4, r0
 123:ARM_SEGGER_RTT/SEGGER_RTT_printf.c ****   unsigned Cnt;
  38              		.loc 1 123 3 is_stmt 1 view .LVU2
 124:ARM_SEGGER_RTT/SEGGER_RTT_printf.c **** 
 125:ARM_SEGGER_RTT/SEGGER_RTT_printf.c ****   Cnt = p->Cnt;
  39              		.loc 1 125 3 view .LVU3
  40              		.loc 1 125 7 is_stmt 0 view .LVU4
  41 0004 8268     		ldr	r2, [r0, #8]
  42              	.LVL1:
 126:ARM_SEGGER_RTT/SEGGER_RTT_printf.c ****   if ((Cnt + 1u) <= p->BufferSize) {
  43              		.loc 1 126 3 is_stmt 1 view .LVU5
  44              		.loc 1 126 12 is_stmt 0 view .LVU6
  45 0006 531C     		adds	r3, r2, #1
  46              		.loc 1 126 22 view .LVU7
ARM GAS  /var/folders/mx/xtmnkh9x46d2ktwbhj73try40000gn/T//cc0G0E9P.s 			page 4


  47 0008 4068     		ldr	r0, [r0, #4]
  48              	.LVL2:
  49              		.loc 1 126 6 view .LVU8
  50 000a 8342     		cmp	r3, r0
  51 000c 05D8     		bhi	.L2
 127:ARM_SEGGER_RTT/SEGGER_RTT_printf.c ****     *(p->pBuffer + Cnt) = c;
  52              		.loc 1 127 5 is_stmt 1 view .LVU9
  53              		.loc 1 127 8 is_stmt 0 view .LVU10
  54 000e 2068     		ldr	r0, [r4]
  55              		.loc 1 127 25 view .LVU11
  56 0010 8154     		strb	r1, [r0, r2]
 128:ARM_SEGGER_RTT/SEGGER_RTT_printf.c ****     p->Cnt = Cnt + 1u;
  57              		.loc 1 128 5 is_stmt 1 view .LVU12
  58              		.loc 1 128 12 is_stmt 0 view .LVU13
  59 0012 A360     		str	r3, [r4, #8]
 129:ARM_SEGGER_RTT/SEGGER_RTT_printf.c ****     p->ReturnValue++;
  60              		.loc 1 129 5 is_stmt 1 view .LVU14
  61              		.loc 1 129 6 is_stmt 0 view .LVU15
  62 0014 E368     		ldr	r3, [r4, #12]
  63              		.loc 1 129 19 view .LVU16
  64 0016 0133     		adds	r3, r3, #1
  65 0018 E360     		str	r3, [r4, #12]
  66              	.L2:
 130:ARM_SEGGER_RTT/SEGGER_RTT_printf.c ****   }
 131:ARM_SEGGER_RTT/SEGGER_RTT_printf.c ****   //
 132:ARM_SEGGER_RTT/SEGGER_RTT_printf.c ****   // Write part of string, when the buffer is full
 133:ARM_SEGGER_RTT/SEGGER_RTT_printf.c ****   //
 134:ARM_SEGGER_RTT/SEGGER_RTT_printf.c ****   if (p->Cnt == p->BufferSize) {
  67              		.loc 1 134 3 is_stmt 1 view .LVU17
  68              		.loc 1 134 8 is_stmt 0 view .LVU18
  69 001a A268     		ldr	r2, [r4, #8]
  70              	.LVL3:
  71              		.loc 1 134 18 view .LVU19
  72 001c 6368     		ldr	r3, [r4, #4]
  73              		.loc 1 134 6 view .LVU20
  74 001e 9A42     		cmp	r2, r3
  75 0020 00D0     		beq	.L6
  76              	.LVL4:
  77              	.L1:
 135:ARM_SEGGER_RTT/SEGGER_RTT_printf.c ****     if (SEGGER_RTT_Write(p->RTTBufferIndex, p->pBuffer, p->Cnt) != p->Cnt) {
 136:ARM_SEGGER_RTT/SEGGER_RTT_printf.c ****       p->ReturnValue = -1;
 137:ARM_SEGGER_RTT/SEGGER_RTT_printf.c ****     } else {
 138:ARM_SEGGER_RTT/SEGGER_RTT_printf.c ****       p->Cnt = 0u;
 139:ARM_SEGGER_RTT/SEGGER_RTT_printf.c ****     }
 140:ARM_SEGGER_RTT/SEGGER_RTT_printf.c ****   }
 141:ARM_SEGGER_RTT/SEGGER_RTT_printf.c **** }
  78              		.loc 1 141 1 view .LVU21
  79 0022 10BD     		pop	{r4, pc}
  80              	.LVL5:
  81              	.L6:
 135:ARM_SEGGER_RTT/SEGGER_RTT_printf.c ****     if (SEGGER_RTT_Write(p->RTTBufferIndex, p->pBuffer, p->Cnt) != p->Cnt) {
  82              		.loc 1 135 5 is_stmt 1 view .LVU22
 135:ARM_SEGGER_RTT/SEGGER_RTT_printf.c ****     if (SEGGER_RTT_Write(p->RTTBufferIndex, p->pBuffer, p->Cnt) != p->Cnt) {
  83              		.loc 1 135 9 is_stmt 0 view .LVU23
  84 0024 2168     		ldr	r1, [r4]
  85              	.LVL6:
 135:ARM_SEGGER_RTT/SEGGER_RTT_printf.c ****     if (SEGGER_RTT_Write(p->RTTBufferIndex, p->pBuffer, p->Cnt) != p->Cnt) {
ARM GAS  /var/folders/mx/xtmnkh9x46d2ktwbhj73try40000gn/T//cc0G0E9P.s 			page 5


  86              		.loc 1 135 9 view .LVU24
  87 0026 2069     		ldr	r0, [r4, #16]
  88 0028 FFF7FEFF 		bl	SEGGER_RTT_Write
  89              	.LVL7:
 135:ARM_SEGGER_RTT/SEGGER_RTT_printf.c ****     if (SEGGER_RTT_Write(p->RTTBufferIndex, p->pBuffer, p->Cnt) != p->Cnt) {
  90              		.loc 1 135 69 view .LVU25
  91 002c A368     		ldr	r3, [r4, #8]
 135:ARM_SEGGER_RTT/SEGGER_RTT_printf.c ****     if (SEGGER_RTT_Write(p->RTTBufferIndex, p->pBuffer, p->Cnt) != p->Cnt) {
  92              		.loc 1 135 8 view .LVU26
  93 002e 9842     		cmp	r0, r3
  94 0030 03D0     		beq	.L4
 136:ARM_SEGGER_RTT/SEGGER_RTT_printf.c ****     } else {
  95              		.loc 1 136 7 is_stmt 1 view .LVU27
 136:ARM_SEGGER_RTT/SEGGER_RTT_printf.c ****     } else {
  96              		.loc 1 136 22 is_stmt 0 view .LVU28
  97 0032 4FF0FF33 		mov	r3, #-1
  98 0036 E360     		str	r3, [r4, #12]
  99 0038 F3E7     		b	.L1
 100              	.L4:
 138:ARM_SEGGER_RTT/SEGGER_RTT_printf.c ****     }
 101              		.loc 1 138 7 is_stmt 1 view .LVU29
 138:ARM_SEGGER_RTT/SEGGER_RTT_printf.c ****     }
 102              		.loc 1 138 14 is_stmt 0 view .LVU30
 103 003a 0023     		movs	r3, #0
 104 003c A360     		str	r3, [r4, #8]
 105              		.loc 1 141 1 view .LVU31
 106 003e F0E7     		b	.L1
 107              		.cfi_endproc
 108              	.LFE0:
 110              		.section	.text._PrintUnsigned,"ax",%progbits
 111              		.align	1
 112              		.syntax unified
 113              		.thumb
 114              		.thumb_func
 115              		.fpu softvfp
 117              	_PrintUnsigned:
 118              	.LVL8:
 119              	.LFB1:
 142:ARM_SEGGER_RTT/SEGGER_RTT_printf.c **** 
 143:ARM_SEGGER_RTT/SEGGER_RTT_printf.c **** /*********************************************************************
 144:ARM_SEGGER_RTT/SEGGER_RTT_printf.c **** *
 145:ARM_SEGGER_RTT/SEGGER_RTT_printf.c **** *       _PrintUnsigned
 146:ARM_SEGGER_RTT/SEGGER_RTT_printf.c **** */
 147:ARM_SEGGER_RTT/SEGGER_RTT_printf.c **** static void _PrintUnsigned(SEGGER_RTT_PRINTF_DESC * pBufferDesc, unsigned v, unsigned Base, unsigne
 120              		.loc 1 147 156 is_stmt 1 view -0
 121              		.cfi_startproc
 122              		@ args = 8, pretend = 0, frame = 0
 123              		@ frame_needed = 0, uses_anonymous_args = 0
 124              		.loc 1 147 156 is_stmt 0 view .LVU33
 125 0000 2DE9F84F 		push	{r3, r4, r5, r6, r7, r8, r9, r10, fp, lr}
 126              	.LCFI1:
 127              		.cfi_def_cfa_offset 40
 128              		.cfi_offset 3, -40
 129              		.cfi_offset 4, -36
 130              		.cfi_offset 5, -32
 131              		.cfi_offset 6, -28
 132              		.cfi_offset 7, -24
ARM GAS  /var/folders/mx/xtmnkh9x46d2ktwbhj73try40000gn/T//cc0G0E9P.s 			page 6


 133              		.cfi_offset 8, -20
 134              		.cfi_offset 9, -16
 135              		.cfi_offset 10, -12
 136              		.cfi_offset 11, -8
 137              		.cfi_offset 14, -4
 138 0004 8146     		mov	r9, r0
 139 0006 0F46     		mov	r7, r1
 140 0008 1546     		mov	r5, r2
 141 000a 1E46     		mov	r6, r3
 142 000c DDF828A0 		ldr	r10, [sp, #40]
 143 0010 0B9A     		ldr	r2, [sp, #44]
 144              	.LVL9:
 148:ARM_SEGGER_RTT/SEGGER_RTT_printf.c ****   static const char _aV2C[16] = {'0', '1', '2', '3', '4', '5', '6', '7', '8', '9', 'A', 'B', 'C', '
 145              		.loc 1 148 3 is_stmt 1 view .LVU34
 149:ARM_SEGGER_RTT/SEGGER_RTT_printf.c ****   unsigned Div;
 146              		.loc 1 149 3 view .LVU35
 150:ARM_SEGGER_RTT/SEGGER_RTT_printf.c ****   unsigned Digit;
 147              		.loc 1 150 3 view .LVU36
 151:ARM_SEGGER_RTT/SEGGER_RTT_printf.c ****   unsigned Number;
 148              		.loc 1 151 3 view .LVU37
 152:ARM_SEGGER_RTT/SEGGER_RTT_printf.c ****   unsigned Width;
 149              		.loc 1 152 3 view .LVU38
 153:ARM_SEGGER_RTT/SEGGER_RTT_printf.c ****   char c;
 150              		.loc 1 153 3 view .LVU39
 154:ARM_SEGGER_RTT/SEGGER_RTT_printf.c **** 
 155:ARM_SEGGER_RTT/SEGGER_RTT_printf.c ****   Number = v;
 151              		.loc 1 155 3 view .LVU40
 156:ARM_SEGGER_RTT/SEGGER_RTT_printf.c ****   Digit = 1u;
 152              		.loc 1 156 3 view .LVU41
 157:ARM_SEGGER_RTT/SEGGER_RTT_printf.c ****   //
 158:ARM_SEGGER_RTT/SEGGER_RTT_printf.c ****   // Get actual field width
 159:ARM_SEGGER_RTT/SEGGER_RTT_printf.c ****   //
 160:ARM_SEGGER_RTT/SEGGER_RTT_printf.c ****   Width = 1u;
 153              		.loc 1 160 3 view .LVU42
 161:ARM_SEGGER_RTT/SEGGER_RTT_printf.c ****   while (Number >= Base) {
 154              		.loc 1 161 3 view .LVU43
 155:ARM_SEGGER_RTT/SEGGER_RTT_printf.c ****   Digit = 1u;
 155              		.loc 1 155 10 is_stmt 0 view .LVU44
 156 0012 0B46     		mov	r3, r1
 157              	.LVL10:
 160:ARM_SEGGER_RTT/SEGGER_RTT_printf.c ****   while (Number >= Base) {
 158              		.loc 1 160 9 view .LVU45
 159 0014 4FF00108 		mov	r8, #1
 160              	.LVL11:
 161              	.L8:
 162              		.loc 1 161 9 is_stmt 1 view .LVU46
 163 0018 AB42     		cmp	r3, r5
 164 001a 04D3     		bcc	.L28
 162:ARM_SEGGER_RTT/SEGGER_RTT_printf.c ****     Number = (Number / Base);
 165              		.loc 1 162 5 view .LVU47
 166              		.loc 1 162 12 is_stmt 0 view .LVU48
 167 001c B3FBF5F3 		udiv	r3, r3, r5
 168              	.LVL12:
 163:ARM_SEGGER_RTT/SEGGER_RTT_printf.c ****     Width++;
 169              		.loc 1 163 5 is_stmt 1 view .LVU49
 170              		.loc 1 163 10 is_stmt 0 view .LVU50
 171 0020 08F10108 		add	r8, r8, #1
ARM GAS  /var/folders/mx/xtmnkh9x46d2ktwbhj73try40000gn/T//cc0G0E9P.s 			page 7


 172              	.LVL13:
 173              		.loc 1 163 10 view .LVU51
 174 0024 F8E7     		b	.L8
 175              	.L28:
 164:ARM_SEGGER_RTT/SEGGER_RTT_printf.c ****   }
 165:ARM_SEGGER_RTT/SEGGER_RTT_printf.c ****   if (NumDigits > Width) {
 176              		.loc 1 165 3 is_stmt 1 view .LVU52
 177              		.loc 1 165 6 is_stmt 0 view .LVU53
 178 0026 B045     		cmp	r8, r6
 179 0028 00D2     		bcs	.L10
 166:ARM_SEGGER_RTT/SEGGER_RTT_printf.c ****     Width = NumDigits;
 180              		.loc 1 166 11 view .LVU54
 181 002a B046     		mov	r8, r6
 182              	.LVL14:
 183              	.L10:
 167:ARM_SEGGER_RTT/SEGGER_RTT_printf.c ****   }
 168:ARM_SEGGER_RTT/SEGGER_RTT_printf.c ****   //
 169:ARM_SEGGER_RTT/SEGGER_RTT_printf.c ****   // Print leading chars if necessary
 170:ARM_SEGGER_RTT/SEGGER_RTT_printf.c ****   //
 171:ARM_SEGGER_RTT/SEGGER_RTT_printf.c ****   if ((FormatFlags & FORMAT_FLAG_LEFT_JUSTIFY) == 0u) {
 184              		.loc 1 171 3 is_stmt 1 view .LVU55
 185              		.loc 1 171 6 is_stmt 0 view .LVU56
 186 002c 12F0010B 		ands	fp, r2, #1
 187 0030 18D1     		bne	.L11
 172:ARM_SEGGER_RTT/SEGGER_RTT_printf.c ****     if (FieldWidth != 0u) {
 188              		.loc 1 172 5 is_stmt 1 view .LVU57
 189              		.loc 1 172 8 is_stmt 0 view .LVU58
 190 0032 BAF1000F 		cmp	r10, #0
 191 0036 15D0     		beq	.L11
 173:ARM_SEGGER_RTT/SEGGER_RTT_printf.c ****       if (((FormatFlags & FORMAT_FLAG_PAD_ZERO) == FORMAT_FLAG_PAD_ZERO) && (NumDigits == 0u)) {
 192              		.loc 1 173 7 is_stmt 1 view .LVU59
 193              		.loc 1 173 10 is_stmt 0 view .LVU60
 194 0038 12F0020F 		tst	r2, #2
 195 003c 02D0     		beq	.L24
 196              		.loc 1 173 74 discriminator 1 view .LVU61
 197 003e BEB1     		cbz	r6, .L25
 174:ARM_SEGGER_RTT/SEGGER_RTT_printf.c ****         c = '0';
 175:ARM_SEGGER_RTT/SEGGER_RTT_printf.c ****       } else {
 176:ARM_SEGGER_RTT/SEGGER_RTT_printf.c ****         c = ' ';
 198              		.loc 1 176 11 view .LVU62
 199 0040 2024     		movs	r4, #32
 200 0042 00E0     		b	.L13
 201              	.L24:
 202 0044 2024     		movs	r4, #32
 203              	.LVL15:
 204              	.L13:
 177:ARM_SEGGER_RTT/SEGGER_RTT_printf.c ****       }
 178:ARM_SEGGER_RTT/SEGGER_RTT_printf.c ****       while ((FieldWidth != 0u) && (Width < FieldWidth)) {
 205              		.loc 1 178 13 is_stmt 1 view .LVU63
 206 0046 BAF1000F 		cmp	r10, #0
 207 004a 0BD0     		beq	.L11
 208              		.loc 1 178 33 is_stmt 0 discriminator 1 view .LVU64
 209 004c C245     		cmp	r10, r8
 210 004e 09D9     		bls	.L11
 179:ARM_SEGGER_RTT/SEGGER_RTT_printf.c ****         FieldWidth--;
 211              		.loc 1 179 9 is_stmt 1 view .LVU65
 212              		.loc 1 179 19 is_stmt 0 view .LVU66
ARM GAS  /var/folders/mx/xtmnkh9x46d2ktwbhj73try40000gn/T//cc0G0E9P.s 			page 8


 213 0050 0AF1FF3A 		add	r10, r10, #-1
 214              	.LVL16:
 180:ARM_SEGGER_RTT/SEGGER_RTT_printf.c ****         _StoreChar(pBufferDesc, c);
 215              		.loc 1 180 9 is_stmt 1 view .LVU67
 216 0054 2146     		mov	r1, r4
 217 0056 4846     		mov	r0, r9
 218 0058 FFF7FEFF 		bl	_StoreChar
 219              	.LVL17:
 181:ARM_SEGGER_RTT/SEGGER_RTT_printf.c ****         if (pBufferDesc->ReturnValue < 0) {
 220              		.loc 1 181 9 view .LVU68
 221              		.loc 1 181 24 is_stmt 0 view .LVU69
 222 005c D9F80C30 		ldr	r3, [r9, #12]
 223              		.loc 1 181 12 view .LVU70
 224 0060 002B     		cmp	r3, #0
 225 0062 F0DA     		bge	.L13
 226              	.LVL18:
 227              	.L11:
 182:ARM_SEGGER_RTT/SEGGER_RTT_printf.c ****           break;
 183:ARM_SEGGER_RTT/SEGGER_RTT_printf.c ****         }
 184:ARM_SEGGER_RTT/SEGGER_RTT_printf.c ****       }
 185:ARM_SEGGER_RTT/SEGGER_RTT_printf.c ****     }
 186:ARM_SEGGER_RTT/SEGGER_RTT_printf.c ****   }
 187:ARM_SEGGER_RTT/SEGGER_RTT_printf.c ****   if (pBufferDesc->ReturnValue >= 0) {
 228              		.loc 1 187 3 is_stmt 1 view .LVU71
 229              		.loc 1 187 18 is_stmt 0 view .LVU72
 230 0064 D9F80C30 		ldr	r3, [r9, #12]
 231              		.loc 1 187 6 view .LVU73
 232 0068 002B     		cmp	r3, #0
 233 006a 25DB     		blt	.L7
 156:ARM_SEGGER_RTT/SEGGER_RTT_printf.c ****   //
 234              		.loc 1 156 9 view .LVU74
 235 006c 0124     		movs	r4, #1
 236 006e 07E0     		b	.L19
 237              	.LVL19:
 238              	.L25:
 174:ARM_SEGGER_RTT/SEGGER_RTT_printf.c ****       } else {
 239              		.loc 1 174 11 view .LVU75
 240 0070 3024     		movs	r4, #48
 241 0072 E8E7     		b	.L13
 242              	.LVL20:
 243              	.L16:
 188:ARM_SEGGER_RTT/SEGGER_RTT_printf.c ****     //
 189:ARM_SEGGER_RTT/SEGGER_RTT_printf.c ****     // Compute Digit.
 190:ARM_SEGGER_RTT/SEGGER_RTT_printf.c ****     // Loop until Digit has the value of the highest digit required.
 191:ARM_SEGGER_RTT/SEGGER_RTT_printf.c ****     // Example: If the output is 345 (Base 10), loop 2 times until Digit is 100.
 192:ARM_SEGGER_RTT/SEGGER_RTT_printf.c ****     //
 193:ARM_SEGGER_RTT/SEGGER_RTT_printf.c ****     while (1) {
 194:ARM_SEGGER_RTT/SEGGER_RTT_printf.c ****       if (NumDigits > 1u) {       // User specified a min number of digits to print? => Make sure w
 195:ARM_SEGGER_RTT/SEGGER_RTT_printf.c ****         NumDigits--;
 196:ARM_SEGGER_RTT/SEGGER_RTT_printf.c ****       } else {
 197:ARM_SEGGER_RTT/SEGGER_RTT_printf.c ****         Div = v / Digit;
 244              		.loc 1 197 9 is_stmt 1 view .LVU76
 245              		.loc 1 197 13 is_stmt 0 view .LVU77
 246 0074 B7FBF4F3 		udiv	r3, r7, r4
 247              	.LVL21:
 198:ARM_SEGGER_RTT/SEGGER_RTT_printf.c ****         if (Div < Base) {        // Is our divider big enough to extract the highest digit from val
 248              		.loc 1 198 9 is_stmt 1 view .LVU78
ARM GAS  /var/folders/mx/xtmnkh9x46d2ktwbhj73try40000gn/T//cc0G0E9P.s 			page 9


 249              		.loc 1 198 12 is_stmt 0 view .LVU79
 250 0078 9D42     		cmp	r5, r3
 251 007a 06D8     		bhi	.L18
 252              	.LVL22:
 253              	.L17:
 199:ARM_SEGGER_RTT/SEGGER_RTT_printf.c ****           break;
 200:ARM_SEGGER_RTT/SEGGER_RTT_printf.c ****         }
 201:ARM_SEGGER_RTT/SEGGER_RTT_printf.c ****       }
 202:ARM_SEGGER_RTT/SEGGER_RTT_printf.c ****       Digit *= Base;
 254              		.loc 1 202 7 is_stmt 1 view .LVU80
 255              		.loc 1 202 13 is_stmt 0 view .LVU81
 256 007c 05FB04F4 		mul	r4, r5, r4
 257              	.LVL23:
 193:ARM_SEGGER_RTT/SEGGER_RTT_printf.c ****       if (NumDigits > 1u) {       // User specified a min number of digits to print? => Make sure w
 258              		.loc 1 193 11 is_stmt 1 view .LVU82
 259              	.L19:
 193:ARM_SEGGER_RTT/SEGGER_RTT_printf.c ****       if (NumDigits > 1u) {       // User specified a min number of digits to print? => Make sure w
 260              		.loc 1 193 5 view .LVU83
 194:ARM_SEGGER_RTT/SEGGER_RTT_printf.c ****         NumDigits--;
 261              		.loc 1 194 7 view .LVU84
 194:ARM_SEGGER_RTT/SEGGER_RTT_printf.c ****         NumDigits--;
 262              		.loc 1 194 10 is_stmt 0 view .LVU85
 263 0080 012E     		cmp	r6, #1
 264 0082 F7D9     		bls	.L16
 195:ARM_SEGGER_RTT/SEGGER_RTT_printf.c ****       } else {
 265              		.loc 1 195 9 is_stmt 1 view .LVU86
 195:ARM_SEGGER_RTT/SEGGER_RTT_printf.c ****       } else {
 266              		.loc 1 195 18 is_stmt 0 view .LVU87
 267 0084 013E     		subs	r6, r6, #1
 268              	.LVL24:
 195:ARM_SEGGER_RTT/SEGGER_RTT_printf.c ****       } else {
 269              		.loc 1 195 18 view .LVU88
 270 0086 F9E7     		b	.L17
 271              	.LVL25:
 272              	.L26:
 203:ARM_SEGGER_RTT/SEGGER_RTT_printf.c ****     }
 204:ARM_SEGGER_RTT/SEGGER_RTT_printf.c ****     //
 205:ARM_SEGGER_RTT/SEGGER_RTT_printf.c ****     // Output digits
 206:ARM_SEGGER_RTT/SEGGER_RTT_printf.c ****     //
 207:ARM_SEGGER_RTT/SEGGER_RTT_printf.c ****     do {
 208:ARM_SEGGER_RTT/SEGGER_RTT_printf.c ****       Div = v / Digit;
 209:ARM_SEGGER_RTT/SEGGER_RTT_printf.c ****       v -= Div * Digit;
 210:ARM_SEGGER_RTT/SEGGER_RTT_printf.c ****       _StoreChar(pBufferDesc, _aV2C[Div]);
 211:ARM_SEGGER_RTT/SEGGER_RTT_printf.c ****       if (pBufferDesc->ReturnValue < 0) {
 212:ARM_SEGGER_RTT/SEGGER_RTT_printf.c ****         break;
 213:ARM_SEGGER_RTT/SEGGER_RTT_printf.c ****       }
 214:ARM_SEGGER_RTT/SEGGER_RTT_printf.c ****       Digit /= Base;
 273              		.loc 1 214 13 view .LVU89
 274 0088 1C46     		mov	r4, r3
 275              	.LVL26:
 276              	.L18:
 207:ARM_SEGGER_RTT/SEGGER_RTT_printf.c ****       Div = v / Digit;
 277              		.loc 1 207 5 is_stmt 1 view .LVU90
 208:ARM_SEGGER_RTT/SEGGER_RTT_printf.c ****       v -= Div * Digit;
 278              		.loc 1 208 7 view .LVU91
 208:ARM_SEGGER_RTT/SEGGER_RTT_printf.c ****       v -= Div * Digit;
 279              		.loc 1 208 11 is_stmt 0 view .LVU92
ARM GAS  /var/folders/mx/xtmnkh9x46d2ktwbhj73try40000gn/T//cc0G0E9P.s 			page 10


 280 008a B7FBF4F3 		udiv	r3, r7, r4
 281              	.LVL27:
 209:ARM_SEGGER_RTT/SEGGER_RTT_printf.c ****       _StoreChar(pBufferDesc, _aV2C[Div]);
 282              		.loc 1 209 7 is_stmt 1 view .LVU93
 283 008e 04FB1377 		mls	r7, r4, r3, r7
 284              	.LVL28:
 210:ARM_SEGGER_RTT/SEGGER_RTT_printf.c ****       if (pBufferDesc->ReturnValue < 0) {
 285              		.loc 1 210 7 view .LVU94
 286 0092 124A     		ldr	r2, .L29
 287 0094 D15C     		ldrb	r1, [r2, r3]	@ zero_extendqisi2
 288 0096 4846     		mov	r0, r9
 289 0098 FFF7FEFF 		bl	_StoreChar
 290              	.LVL29:
 211:ARM_SEGGER_RTT/SEGGER_RTT_printf.c ****         break;
 291              		.loc 1 211 7 view .LVU95
 211:ARM_SEGGER_RTT/SEGGER_RTT_printf.c ****         break;
 292              		.loc 1 211 22 is_stmt 0 view .LVU96
 293 009c D9F80C30 		ldr	r3, [r9, #12]
 211:ARM_SEGGER_RTT/SEGGER_RTT_printf.c ****         break;
 294              		.loc 1 211 10 view .LVU97
 295 00a0 002B     		cmp	r3, #0
 296 00a2 03DB     		blt	.L20
 297              		.loc 1 214 7 is_stmt 1 view .LVU98
 298              		.loc 1 214 13 is_stmt 0 view .LVU99
 299 00a4 B4FBF5F3 		udiv	r3, r4, r5
 300              	.LVL30:
 215:ARM_SEGGER_RTT/SEGGER_RTT_printf.c ****     } while (Digit);
 301              		.loc 1 215 13 is_stmt 1 view .LVU100
 302              		.loc 1 215 5 is_stmt 0 view .LVU101
 303 00a8 AC42     		cmp	r4, r5
 304 00aa EDD2     		bcs	.L26
 305              	.LVL31:
 306              	.L20:
 216:ARM_SEGGER_RTT/SEGGER_RTT_printf.c ****     //
 217:ARM_SEGGER_RTT/SEGGER_RTT_printf.c ****     // Print trailing spaces if necessary
 218:ARM_SEGGER_RTT/SEGGER_RTT_printf.c ****     //
 219:ARM_SEGGER_RTT/SEGGER_RTT_printf.c ****     if ((FormatFlags & FORMAT_FLAG_LEFT_JUSTIFY) == FORMAT_FLAG_LEFT_JUSTIFY) {
 307              		.loc 1 219 5 is_stmt 1 view .LVU102
 308              		.loc 1 219 8 is_stmt 0 view .LVU103
 309 00ac BBF1000F 		cmp	fp, #0
 310 00b0 02D0     		beq	.L7
 220:ARM_SEGGER_RTT/SEGGER_RTT_printf.c ****       if (FieldWidth != 0u) {
 311              		.loc 1 220 7 is_stmt 1 view .LVU104
 312              		.loc 1 220 10 is_stmt 0 view .LVU105
 313 00b2 BAF1000F 		cmp	r10, #0
 314 00b6 01D1     		bne	.L21
 315              	.L7:
 221:ARM_SEGGER_RTT/SEGGER_RTT_printf.c ****         while ((FieldWidth != 0u) && (Width < FieldWidth)) {
 222:ARM_SEGGER_RTT/SEGGER_RTT_printf.c ****           FieldWidth--;
 223:ARM_SEGGER_RTT/SEGGER_RTT_printf.c ****           _StoreChar(pBufferDesc, ' ');
 224:ARM_SEGGER_RTT/SEGGER_RTT_printf.c ****           if (pBufferDesc->ReturnValue < 0) {
 225:ARM_SEGGER_RTT/SEGGER_RTT_printf.c ****             break;
 226:ARM_SEGGER_RTT/SEGGER_RTT_printf.c ****           }
 227:ARM_SEGGER_RTT/SEGGER_RTT_printf.c ****         }
 228:ARM_SEGGER_RTT/SEGGER_RTT_printf.c ****       }
 229:ARM_SEGGER_RTT/SEGGER_RTT_printf.c ****     }
 230:ARM_SEGGER_RTT/SEGGER_RTT_printf.c ****   }
ARM GAS  /var/folders/mx/xtmnkh9x46d2ktwbhj73try40000gn/T//cc0G0E9P.s 			page 11


 231:ARM_SEGGER_RTT/SEGGER_RTT_printf.c **** }
 316              		.loc 1 231 1 view .LVU106
 317 00b8 BDE8F88F 		pop	{r3, r4, r5, r6, r7, r8, r9, r10, fp, pc}
 318              	.LVL32:
 319              	.L21:
 221:ARM_SEGGER_RTT/SEGGER_RTT_printf.c ****         while ((FieldWidth != 0u) && (Width < FieldWidth)) {
 320              		.loc 1 221 15 is_stmt 1 view .LVU107
 321 00bc BAF1000F 		cmp	r10, #0
 322 00c0 FAD0     		beq	.L7
 221:ARM_SEGGER_RTT/SEGGER_RTT_printf.c ****         while ((FieldWidth != 0u) && (Width < FieldWidth)) {
 323              		.loc 1 221 35 is_stmt 0 discriminator 1 view .LVU108
 324 00c2 C245     		cmp	r10, r8
 325 00c4 F8D9     		bls	.L7
 222:ARM_SEGGER_RTT/SEGGER_RTT_printf.c ****           _StoreChar(pBufferDesc, ' ');
 326              		.loc 1 222 11 is_stmt 1 view .LVU109
 222:ARM_SEGGER_RTT/SEGGER_RTT_printf.c ****           _StoreChar(pBufferDesc, ' ');
 327              		.loc 1 222 21 is_stmt 0 view .LVU110
 328 00c6 0AF1FF3A 		add	r10, r10, #-1
 329              	.LVL33:
 223:ARM_SEGGER_RTT/SEGGER_RTT_printf.c ****           if (pBufferDesc->ReturnValue < 0) {
 330              		.loc 1 223 11 is_stmt 1 view .LVU111
 331 00ca 2021     		movs	r1, #32
 332 00cc 4846     		mov	r0, r9
 333 00ce FFF7FEFF 		bl	_StoreChar
 334              	.LVL34:
 224:ARM_SEGGER_RTT/SEGGER_RTT_printf.c ****             break;
 335              		.loc 1 224 11 view .LVU112
 224:ARM_SEGGER_RTT/SEGGER_RTT_printf.c ****             break;
 336              		.loc 1 224 26 is_stmt 0 view .LVU113
 337 00d2 D9F80C30 		ldr	r3, [r9, #12]
 224:ARM_SEGGER_RTT/SEGGER_RTT_printf.c ****             break;
 338              		.loc 1 224 14 view .LVU114
 339 00d6 002B     		cmp	r3, #0
 340 00d8 F0DA     		bge	.L21
 341 00da EDE7     		b	.L7
 342              	.L30:
 343              		.align	2
 344              	.L29:
 345 00dc 00000000 		.word	.LANCHOR0
 346              		.cfi_endproc
 347              	.LFE1:
 349              		.section	.text._PrintInt,"ax",%progbits
 350              		.align	1
 351              		.syntax unified
 352              		.thumb
 353              		.thumb_func
 354              		.fpu softvfp
 356              	_PrintInt:
 357              	.LVL35:
 358              	.LFB2:
 232:ARM_SEGGER_RTT/SEGGER_RTT_printf.c **** 
 233:ARM_SEGGER_RTT/SEGGER_RTT_printf.c **** /*********************************************************************
 234:ARM_SEGGER_RTT/SEGGER_RTT_printf.c **** *
 235:ARM_SEGGER_RTT/SEGGER_RTT_printf.c **** *       _PrintInt
 236:ARM_SEGGER_RTT/SEGGER_RTT_printf.c **** */
 237:ARM_SEGGER_RTT/SEGGER_RTT_printf.c **** static void _PrintInt(SEGGER_RTT_PRINTF_DESC * pBufferDesc, int v, unsigned Base, unsigned NumDigit
 359              		.loc 1 237 146 is_stmt 1 view -0
ARM GAS  /var/folders/mx/xtmnkh9x46d2ktwbhj73try40000gn/T//cc0G0E9P.s 			page 12


 360              		.cfi_startproc
 361              		@ args = 8, pretend = 0, frame = 0
 362              		@ frame_needed = 0, uses_anonymous_args = 0
 363              		.loc 1 237 146 is_stmt 0 view .LVU116
 364 0000 2DE9F04F 		push	{r4, r5, r6, r7, r8, r9, r10, fp, lr}
 365              	.LCFI2:
 366              		.cfi_def_cfa_offset 36
 367              		.cfi_offset 4, -36
 368              		.cfi_offset 5, -32
 369              		.cfi_offset 6, -28
 370              		.cfi_offset 7, -24
 371              		.cfi_offset 8, -20
 372              		.cfi_offset 9, -16
 373              		.cfi_offset 10, -12
 374              		.cfi_offset 11, -8
 375              		.cfi_offset 14, -4
 376 0004 83B0     		sub	sp, sp, #12
 377              	.LCFI3:
 378              		.cfi_def_cfa_offset 48
 379 0006 8046     		mov	r8, r0
 380 0008 8946     		mov	r9, r1
 381 000a 1646     		mov	r6, r2
 382 000c 9A46     		mov	r10, r3
 383 000e 0C9F     		ldr	r7, [sp, #48]
 384 0010 DDF834B0 		ldr	fp, [sp, #52]
 238:ARM_SEGGER_RTT/SEGGER_RTT_printf.c ****   unsigned Width;
 385              		.loc 1 238 3 is_stmt 1 view .LVU117
 239:ARM_SEGGER_RTT/SEGGER_RTT_printf.c ****   int Number;
 386              		.loc 1 239 3 view .LVU118
 240:ARM_SEGGER_RTT/SEGGER_RTT_printf.c **** 
 241:ARM_SEGGER_RTT/SEGGER_RTT_printf.c ****   Number = (v < 0) ? -v : v;
 387              		.loc 1 241 3 view .LVU119
 388              		.loc 1 241 10 is_stmt 0 view .LVU120
 389 0014 81EAE174 		eor	r4, r1, r1, asr #31
 390 0018 A4EBE174 		sub	r4, r4, r1, asr #31
 391              	.LVL36:
 242:ARM_SEGGER_RTT/SEGGER_RTT_printf.c **** 
 243:ARM_SEGGER_RTT/SEGGER_RTT_printf.c ****   //
 244:ARM_SEGGER_RTT/SEGGER_RTT_printf.c ****   // Get actual field width
 245:ARM_SEGGER_RTT/SEGGER_RTT_printf.c ****   //
 246:ARM_SEGGER_RTT/SEGGER_RTT_printf.c ****   Width = 1u;
 392              		.loc 1 246 3 is_stmt 1 view .LVU121
 247:ARM_SEGGER_RTT/SEGGER_RTT_printf.c ****   while (Number >= (int)Base) {
 393              		.loc 1 247 3 view .LVU122
 246:ARM_SEGGER_RTT/SEGGER_RTT_printf.c ****   while (Number >= (int)Base) {
 394              		.loc 1 246 9 is_stmt 0 view .LVU123
 395 001c 0125     		movs	r5, #1
 396              	.LVL37:
 397              	.L32:
 398              		.loc 1 247 9 is_stmt 1 view .LVU124
 399 001e A642     		cmp	r6, r4
 400 0020 03DC     		bgt	.L49
 248:ARM_SEGGER_RTT/SEGGER_RTT_printf.c ****     Number = (Number / (int)Base);
 401              		.loc 1 248 5 view .LVU125
 402              		.loc 1 248 12 is_stmt 0 view .LVU126
 403 0022 94FBF6F4 		sdiv	r4, r4, r6
 404              	.LVL38:
ARM GAS  /var/folders/mx/xtmnkh9x46d2ktwbhj73try40000gn/T//cc0G0E9P.s 			page 13


 249:ARM_SEGGER_RTT/SEGGER_RTT_printf.c ****     Width++;
 405              		.loc 1 249 5 is_stmt 1 view .LVU127
 406              		.loc 1 249 10 is_stmt 0 view .LVU128
 407 0026 0135     		adds	r5, r5, #1
 408              	.LVL39:
 409              		.loc 1 249 10 view .LVU129
 410 0028 F9E7     		b	.L32
 411              	.L49:
 250:ARM_SEGGER_RTT/SEGGER_RTT_printf.c ****   }
 251:ARM_SEGGER_RTT/SEGGER_RTT_printf.c ****   if (NumDigits > Width) {
 412              		.loc 1 251 3 is_stmt 1 view .LVU130
 413              		.loc 1 251 6 is_stmt 0 view .LVU131
 414 002a 5545     		cmp	r5, r10
 415 002c 00D2     		bcs	.L34
 252:ARM_SEGGER_RTT/SEGGER_RTT_printf.c ****     Width = NumDigits;
 416              		.loc 1 252 11 view .LVU132
 417 002e 5546     		mov	r5, r10
 418              	.LVL40:
 419              	.L34:
 253:ARM_SEGGER_RTT/SEGGER_RTT_printf.c ****   }
 254:ARM_SEGGER_RTT/SEGGER_RTT_printf.c ****   if ((FieldWidth > 0u) && ((v < 0) || ((FormatFlags & FORMAT_FLAG_PRINT_SIGN) == FORMAT_FLAG_PRINT
 420              		.loc 1 254 3 is_stmt 1 view .LVU133
 421              		.loc 1 254 6 is_stmt 0 view .LVU134
 422 0030 37B1     		cbz	r7, .L35
 423              		.loc 1 254 25 discriminator 1 view .LVU135
 424 0032 B9F1000F 		cmp	r9, #0
 425 0036 02DB     		blt	.L36
 426              		.loc 1 254 37 discriminator 2 view .LVU136
 427 0038 1BF0040F 		tst	fp, #4
 428 003c 00D0     		beq	.L35
 429              	.L36:
 255:ARM_SEGGER_RTT/SEGGER_RTT_printf.c ****     FieldWidth--;
 430              		.loc 1 255 5 is_stmt 1 view .LVU137
 431              		.loc 1 255 15 is_stmt 0 view .LVU138
 432 003e 013F     		subs	r7, r7, #1
 433              	.LVL41:
 434              	.L35:
 256:ARM_SEGGER_RTT/SEGGER_RTT_printf.c ****   }
 257:ARM_SEGGER_RTT/SEGGER_RTT_printf.c **** 
 258:ARM_SEGGER_RTT/SEGGER_RTT_printf.c ****   //
 259:ARM_SEGGER_RTT/SEGGER_RTT_printf.c ****   // Print leading spaces if necessary
 260:ARM_SEGGER_RTT/SEGGER_RTT_printf.c ****   //
 261:ARM_SEGGER_RTT/SEGGER_RTT_printf.c ****   if ((((FormatFlags & FORMAT_FLAG_PAD_ZERO) == 0u) || (NumDigits != 0u)) && ((FormatFlags & FORMAT
 435              		.loc 1 261 3 is_stmt 1 view .LVU139
 436              		.loc 1 261 6 is_stmt 0 view .LVU140
 437 0040 1BF0020F 		tst	fp, #2
 438 0044 02D0     		beq	.L37
 439              		.loc 1 261 53 discriminator 2 view .LVU141
 440 0046 BAF1000F 		cmp	r10, #0
 441 004a 03D0     		beq	.L38
 442              	.L37:
 443              		.loc 1 261 75 discriminator 3 view .LVU142
 444 004c 1BF0010F 		tst	fp, #1
 445 0050 00D1     		bne	.L38
 262:ARM_SEGGER_RTT/SEGGER_RTT_printf.c ****     if (FieldWidth != 0u) {
 446              		.loc 1 262 5 is_stmt 1 view .LVU143
 447              		.loc 1 262 8 is_stmt 0 view .LVU144
ARM GAS  /var/folders/mx/xtmnkh9x46d2ktwbhj73try40000gn/T//cc0G0E9P.s 			page 14


 448 0052 C7B9     		cbnz	r7, .L39
 449              	.LVL42:
 450              	.L38:
 263:ARM_SEGGER_RTT/SEGGER_RTT_printf.c ****       while ((FieldWidth != 0u) && (Width < FieldWidth)) {
 264:ARM_SEGGER_RTT/SEGGER_RTT_printf.c ****         FieldWidth--;
 265:ARM_SEGGER_RTT/SEGGER_RTT_printf.c ****         _StoreChar(pBufferDesc, ' ');
 266:ARM_SEGGER_RTT/SEGGER_RTT_printf.c ****         if (pBufferDesc->ReturnValue < 0) {
 267:ARM_SEGGER_RTT/SEGGER_RTT_printf.c ****           break;
 268:ARM_SEGGER_RTT/SEGGER_RTT_printf.c ****         }
 269:ARM_SEGGER_RTT/SEGGER_RTT_printf.c ****       }
 270:ARM_SEGGER_RTT/SEGGER_RTT_printf.c ****     }
 271:ARM_SEGGER_RTT/SEGGER_RTT_printf.c ****   }
 272:ARM_SEGGER_RTT/SEGGER_RTT_printf.c ****   //
 273:ARM_SEGGER_RTT/SEGGER_RTT_printf.c ****   // Print sign if necessary
 274:ARM_SEGGER_RTT/SEGGER_RTT_printf.c ****   //
 275:ARM_SEGGER_RTT/SEGGER_RTT_printf.c ****   if (pBufferDesc->ReturnValue >= 0) {
 451              		.loc 1 275 3 is_stmt 1 view .LVU145
 452              		.loc 1 275 18 is_stmt 0 view .LVU146
 453 0054 D8F80C30 		ldr	r3, [r8, #12]
 454              		.loc 1 275 6 view .LVU147
 455 0058 002B     		cmp	r3, #0
 456 005a 11DB     		blt	.L31
 276:ARM_SEGGER_RTT/SEGGER_RTT_printf.c ****     if (v < 0) {
 457              		.loc 1 276 5 is_stmt 1 view .LVU148
 458              		.loc 1 276 8 is_stmt 0 view .LVU149
 459 005c B9F1000F 		cmp	r9, #0
 460 0060 1FDB     		blt	.L50
 277:ARM_SEGGER_RTT/SEGGER_RTT_printf.c ****       v = -v;
 278:ARM_SEGGER_RTT/SEGGER_RTT_printf.c ****       _StoreChar(pBufferDesc, '-');
 279:ARM_SEGGER_RTT/SEGGER_RTT_printf.c ****     } else if ((FormatFlags & FORMAT_FLAG_PRINT_SIGN) == FORMAT_FLAG_PRINT_SIGN) {
 461              		.loc 1 279 12 is_stmt 1 view .LVU150
 462              		.loc 1 279 15 is_stmt 0 view .LVU151
 463 0062 1BF0040F 		tst	fp, #4
 464 0066 23D1     		bne	.L51
 465              	.L43:
 280:ARM_SEGGER_RTT/SEGGER_RTT_printf.c ****       _StoreChar(pBufferDesc, '+');
 281:ARM_SEGGER_RTT/SEGGER_RTT_printf.c ****     } else {
 282:ARM_SEGGER_RTT/SEGGER_RTT_printf.c **** 
 283:ARM_SEGGER_RTT/SEGGER_RTT_printf.c ****     }
 466              		.loc 1 283 5 is_stmt 1 view .LVU152
 284:ARM_SEGGER_RTT/SEGGER_RTT_printf.c ****     if (pBufferDesc->ReturnValue >= 0) {
 467              		.loc 1 284 5 view .LVU153
 468              		.loc 1 284 20 is_stmt 0 view .LVU154
 469 0068 D8F80C30 		ldr	r3, [r8, #12]
 470              		.loc 1 284 8 view .LVU155
 471 006c 002B     		cmp	r3, #0
 472 006e 07DB     		blt	.L31
 285:ARM_SEGGER_RTT/SEGGER_RTT_printf.c ****       //
 286:ARM_SEGGER_RTT/SEGGER_RTT_printf.c ****       // Print leading zeros if necessary
 287:ARM_SEGGER_RTT/SEGGER_RTT_printf.c ****       //
 288:ARM_SEGGER_RTT/SEGGER_RTT_printf.c ****       if (((FormatFlags & FORMAT_FLAG_PAD_ZERO) == FORMAT_FLAG_PAD_ZERO) && ((FormatFlags & FORMAT_
 473              		.loc 1 288 7 is_stmt 1 view .LVU156
 474              		.loc 1 288 74 is_stmt 0 view .LVU157
 475 0070 0BF00303 		and	r3, fp, #3
 476              		.loc 1 288 10 view .LVU158
 477 0074 022B     		cmp	r3, #2
 478 0076 20D0     		beq	.L52
ARM GAS  /var/folders/mx/xtmnkh9x46d2ktwbhj73try40000gn/T//cc0G0E9P.s 			page 15


 479              	.L44:
 289:ARM_SEGGER_RTT/SEGGER_RTT_printf.c ****         if (FieldWidth != 0u) {
 290:ARM_SEGGER_RTT/SEGGER_RTT_printf.c ****           while ((FieldWidth != 0u) && (Width < FieldWidth)) {
 291:ARM_SEGGER_RTT/SEGGER_RTT_printf.c ****             FieldWidth--;
 292:ARM_SEGGER_RTT/SEGGER_RTT_printf.c ****             _StoreChar(pBufferDesc, '0');
 293:ARM_SEGGER_RTT/SEGGER_RTT_printf.c ****             if (pBufferDesc->ReturnValue < 0) {
 294:ARM_SEGGER_RTT/SEGGER_RTT_printf.c ****               break;
 295:ARM_SEGGER_RTT/SEGGER_RTT_printf.c ****             }
 296:ARM_SEGGER_RTT/SEGGER_RTT_printf.c ****           }
 297:ARM_SEGGER_RTT/SEGGER_RTT_printf.c ****         }
 298:ARM_SEGGER_RTT/SEGGER_RTT_printf.c ****       }
 299:ARM_SEGGER_RTT/SEGGER_RTT_printf.c ****       if (pBufferDesc->ReturnValue >= 0) {
 480              		.loc 1 299 7 is_stmt 1 view .LVU159
 481              		.loc 1 299 22 is_stmt 0 view .LVU160
 482 0078 D8F80C30 		ldr	r3, [r8, #12]
 483              		.loc 1 299 10 view .LVU161
 484 007c 002B     		cmp	r3, #0
 485 007e 2FDA     		bge	.L53
 486              	.L31:
 300:ARM_SEGGER_RTT/SEGGER_RTT_printf.c ****         //
 301:ARM_SEGGER_RTT/SEGGER_RTT_printf.c ****         // Print number without sign
 302:ARM_SEGGER_RTT/SEGGER_RTT_printf.c ****         //
 303:ARM_SEGGER_RTT/SEGGER_RTT_printf.c ****         _PrintUnsigned(pBufferDesc, (unsigned)v, Base, NumDigits, FieldWidth, FormatFlags);
 304:ARM_SEGGER_RTT/SEGGER_RTT_printf.c ****       }
 305:ARM_SEGGER_RTT/SEGGER_RTT_printf.c ****     }
 306:ARM_SEGGER_RTT/SEGGER_RTT_printf.c ****   }
 307:ARM_SEGGER_RTT/SEGGER_RTT_printf.c **** }
 487              		.loc 1 307 1 view .LVU162
 488 0080 03B0     		add	sp, sp, #12
 489              	.LCFI4:
 490              		.cfi_remember_state
 491              		.cfi_def_cfa_offset 36
 492              		@ sp needed
 493 0082 BDE8F08F 		pop	{r4, r5, r6, r7, r8, r9, r10, fp, pc}
 494              	.LVL43:
 495              	.L39:
 496              	.LCFI5:
 497              		.cfi_restore_state
 263:ARM_SEGGER_RTT/SEGGER_RTT_printf.c ****         FieldWidth--;
 498              		.loc 1 263 13 is_stmt 1 view .LVU163
 499 0086 002F     		cmp	r7, #0
 500 0088 E4D0     		beq	.L38
 263:ARM_SEGGER_RTT/SEGGER_RTT_printf.c ****         FieldWidth--;
 501              		.loc 1 263 33 is_stmt 0 discriminator 1 view .LVU164
 502 008a AF42     		cmp	r7, r5
 503 008c E2D9     		bls	.L38
 264:ARM_SEGGER_RTT/SEGGER_RTT_printf.c ****         _StoreChar(pBufferDesc, ' ');
 504              		.loc 1 264 9 is_stmt 1 view .LVU165
 264:ARM_SEGGER_RTT/SEGGER_RTT_printf.c ****         _StoreChar(pBufferDesc, ' ');
 505              		.loc 1 264 19 is_stmt 0 view .LVU166
 506 008e 013F     		subs	r7, r7, #1
 507              	.LVL44:
 265:ARM_SEGGER_RTT/SEGGER_RTT_printf.c ****         if (pBufferDesc->ReturnValue < 0) {
 508              		.loc 1 265 9 is_stmt 1 view .LVU167
 509 0090 2021     		movs	r1, #32
 510 0092 4046     		mov	r0, r8
 511 0094 FFF7FEFF 		bl	_StoreChar
ARM GAS  /var/folders/mx/xtmnkh9x46d2ktwbhj73try40000gn/T//cc0G0E9P.s 			page 16


 512              	.LVL45:
 266:ARM_SEGGER_RTT/SEGGER_RTT_printf.c ****           break;
 513              		.loc 1 266 9 view .LVU168
 266:ARM_SEGGER_RTT/SEGGER_RTT_printf.c ****           break;
 514              		.loc 1 266 24 is_stmt 0 view .LVU169
 515 0098 D8F80C30 		ldr	r3, [r8, #12]
 266:ARM_SEGGER_RTT/SEGGER_RTT_printf.c ****           break;
 516              		.loc 1 266 12 view .LVU170
 517 009c 002B     		cmp	r3, #0
 518 009e F2DA     		bge	.L39
 519 00a0 D8E7     		b	.L38
 520              	.L50:
 277:ARM_SEGGER_RTT/SEGGER_RTT_printf.c ****       _StoreChar(pBufferDesc, '-');
 521              		.loc 1 277 7 is_stmt 1 view .LVU171
 277:ARM_SEGGER_RTT/SEGGER_RTT_printf.c ****       _StoreChar(pBufferDesc, '-');
 522              		.loc 1 277 9 is_stmt 0 view .LVU172
 523 00a2 C9F10009 		rsb	r9, r9, #0
 524              	.LVL46:
 278:ARM_SEGGER_RTT/SEGGER_RTT_printf.c ****     } else if ((FormatFlags & FORMAT_FLAG_PRINT_SIGN) == FORMAT_FLAG_PRINT_SIGN) {
 525              		.loc 1 278 7 is_stmt 1 view .LVU173
 526 00a6 2D21     		movs	r1, #45
 527 00a8 4046     		mov	r0, r8
 528 00aa FFF7FEFF 		bl	_StoreChar
 529              	.LVL47:
 530 00ae DBE7     		b	.L43
 531              	.L51:
 280:ARM_SEGGER_RTT/SEGGER_RTT_printf.c ****     } else {
 532              		.loc 1 280 7 view .LVU174
 533 00b0 2B21     		movs	r1, #43
 534 00b2 4046     		mov	r0, r8
 535 00b4 FFF7FEFF 		bl	_StoreChar
 536              	.LVL48:
 537 00b8 D6E7     		b	.L43
 538              	.L52:
 288:ARM_SEGGER_RTT/SEGGER_RTT_printf.c ****         if (FieldWidth != 0u) {
 539              		.loc 1 288 126 is_stmt 0 discriminator 1 view .LVU175
 540 00ba BAF1000F 		cmp	r10, #0
 541 00be DBD1     		bne	.L44
 289:ARM_SEGGER_RTT/SEGGER_RTT_printf.c ****           while ((FieldWidth != 0u) && (Width < FieldWidth)) {
 542              		.loc 1 289 9 is_stmt 1 view .LVU176
 289:ARM_SEGGER_RTT/SEGGER_RTT_printf.c ****           while ((FieldWidth != 0u) && (Width < FieldWidth)) {
 543              		.loc 1 289 12 is_stmt 0 view .LVU177
 544 00c0 002F     		cmp	r7, #0
 545 00c2 D9D0     		beq	.L44
 546              	.L45:
 290:ARM_SEGGER_RTT/SEGGER_RTT_printf.c ****             FieldWidth--;
 547              		.loc 1 290 17 is_stmt 1 view .LVU178
 548 00c4 002F     		cmp	r7, #0
 549 00c6 D7D0     		beq	.L44
 290:ARM_SEGGER_RTT/SEGGER_RTT_printf.c ****             FieldWidth--;
 550              		.loc 1 290 37 is_stmt 0 discriminator 1 view .LVU179
 551 00c8 AF42     		cmp	r7, r5
 552 00ca D5D9     		bls	.L44
 291:ARM_SEGGER_RTT/SEGGER_RTT_printf.c ****             _StoreChar(pBufferDesc, '0');
 553              		.loc 1 291 13 is_stmt 1 view .LVU180
 291:ARM_SEGGER_RTT/SEGGER_RTT_printf.c ****             _StoreChar(pBufferDesc, '0');
 554              		.loc 1 291 23 is_stmt 0 view .LVU181
ARM GAS  /var/folders/mx/xtmnkh9x46d2ktwbhj73try40000gn/T//cc0G0E9P.s 			page 17


 555 00cc 013F     		subs	r7, r7, #1
 556              	.LVL49:
 292:ARM_SEGGER_RTT/SEGGER_RTT_printf.c ****             if (pBufferDesc->ReturnValue < 0) {
 557              		.loc 1 292 13 is_stmt 1 view .LVU182
 558 00ce 3021     		movs	r1, #48
 559 00d0 4046     		mov	r0, r8
 560 00d2 FFF7FEFF 		bl	_StoreChar
 561              	.LVL50:
 293:ARM_SEGGER_RTT/SEGGER_RTT_printf.c ****               break;
 562              		.loc 1 293 13 view .LVU183
 293:ARM_SEGGER_RTT/SEGGER_RTT_printf.c ****               break;
 563              		.loc 1 293 28 is_stmt 0 view .LVU184
 564 00d6 D8F80C30 		ldr	r3, [r8, #12]
 293:ARM_SEGGER_RTT/SEGGER_RTT_printf.c ****               break;
 565              		.loc 1 293 16 view .LVU185
 566 00da 002B     		cmp	r3, #0
 567 00dc F2DA     		bge	.L45
 568 00de CBE7     		b	.L44
 569              	.L53:
 303:ARM_SEGGER_RTT/SEGGER_RTT_printf.c ****       }
 570              		.loc 1 303 9 is_stmt 1 view .LVU186
 571 00e0 CDF804B0 		str	fp, [sp, #4]
 572 00e4 0097     		str	r7, [sp]
 573 00e6 5346     		mov	r3, r10
 574 00e8 3246     		mov	r2, r6
 575 00ea 4946     		mov	r1, r9
 576 00ec 4046     		mov	r0, r8
 577 00ee FFF7FEFF 		bl	_PrintUnsigned
 578              	.LVL51:
 579              		.loc 1 307 1 is_stmt 0 view .LVU187
 580 00f2 C5E7     		b	.L31
 581              		.cfi_endproc
 582              	.LFE2:
 584              		.section	.text.SEGGER_RTT_vprintf,"ax",%progbits
 585              		.align	1
 586              		.global	SEGGER_RTT_vprintf
 587              		.syntax unified
 588              		.thumb
 589              		.thumb_func
 590              		.fpu softvfp
 592              	SEGGER_RTT_vprintf:
 593              	.LVL52:
 594              	.LFB3:
 308:ARM_SEGGER_RTT/SEGGER_RTT_printf.c **** 
 309:ARM_SEGGER_RTT/SEGGER_RTT_printf.c **** /*********************************************************************
 310:ARM_SEGGER_RTT/SEGGER_RTT_printf.c **** *
 311:ARM_SEGGER_RTT/SEGGER_RTT_printf.c **** *       Public code
 312:ARM_SEGGER_RTT/SEGGER_RTT_printf.c **** *
 313:ARM_SEGGER_RTT/SEGGER_RTT_printf.c **** **********************************************************************
 314:ARM_SEGGER_RTT/SEGGER_RTT_printf.c **** */
 315:ARM_SEGGER_RTT/SEGGER_RTT_printf.c **** /*********************************************************************
 316:ARM_SEGGER_RTT/SEGGER_RTT_printf.c **** *
 317:ARM_SEGGER_RTT/SEGGER_RTT_printf.c **** *       SEGGER_RTT_vprintf
 318:ARM_SEGGER_RTT/SEGGER_RTT_printf.c **** *
 319:ARM_SEGGER_RTT/SEGGER_RTT_printf.c **** *  Function description
 320:ARM_SEGGER_RTT/SEGGER_RTT_printf.c **** *    Stores a formatted string in SEGGER RTT control block.
 321:ARM_SEGGER_RTT/SEGGER_RTT_printf.c **** *    This data is read by the host.
ARM GAS  /var/folders/mx/xtmnkh9x46d2ktwbhj73try40000gn/T//cc0G0E9P.s 			page 18


 322:ARM_SEGGER_RTT/SEGGER_RTT_printf.c **** *
 323:ARM_SEGGER_RTT/SEGGER_RTT_printf.c **** *  Parameters
 324:ARM_SEGGER_RTT/SEGGER_RTT_printf.c **** *    BufferIndex  Index of "Up"-buffer to be used. (e.g. 0 for "Terminal")
 325:ARM_SEGGER_RTT/SEGGER_RTT_printf.c **** *    sFormat      Pointer to format string
 326:ARM_SEGGER_RTT/SEGGER_RTT_printf.c **** *    pParamList   Pointer to the list of arguments for the format string
 327:ARM_SEGGER_RTT/SEGGER_RTT_printf.c **** *
 328:ARM_SEGGER_RTT/SEGGER_RTT_printf.c **** *  Return values
 329:ARM_SEGGER_RTT/SEGGER_RTT_printf.c **** *    >= 0:  Number of bytes which have been stored in the "Up"-buffer.
 330:ARM_SEGGER_RTT/SEGGER_RTT_printf.c **** *     < 0:  Error
 331:ARM_SEGGER_RTT/SEGGER_RTT_printf.c **** */
 332:ARM_SEGGER_RTT/SEGGER_RTT_printf.c **** int SEGGER_RTT_vprintf(unsigned BufferIndex, const char * sFormat, va_list * pParamList) {
 595              		.loc 1 332 90 is_stmt 1 view -0
 596              		.cfi_startproc
 597              		@ args = 0, pretend = 0, frame = 88
 598              		@ frame_needed = 0, uses_anonymous_args = 0
 599              		.loc 1 332 90 is_stmt 0 view .LVU189
 600 0000 F0B5     		push	{r4, r5, r6, r7, lr}
 601              	.LCFI6:
 602              		.cfi_def_cfa_offset 20
 603              		.cfi_offset 4, -20
 604              		.cfi_offset 5, -16
 605              		.cfi_offset 6, -12
 606              		.cfi_offset 7, -8
 607              		.cfi_offset 14, -4
 608 0002 99B0     		sub	sp, sp, #100
 609              	.LCFI7:
 610              		.cfi_def_cfa_offset 120
 611 0004 0746     		mov	r7, r0
 612 0006 0D46     		mov	r5, r1
 613 0008 1646     		mov	r6, r2
 333:ARM_SEGGER_RTT/SEGGER_RTT_printf.c ****   char c;
 614              		.loc 1 333 3 is_stmt 1 view .LVU190
 334:ARM_SEGGER_RTT/SEGGER_RTT_printf.c ****   SEGGER_RTT_PRINTF_DESC BufferDesc;
 615              		.loc 1 334 3 view .LVU191
 335:ARM_SEGGER_RTT/SEGGER_RTT_printf.c ****   int v;
 616              		.loc 1 335 3 view .LVU192
 336:ARM_SEGGER_RTT/SEGGER_RTT_printf.c ****   unsigned NumDigits;
 617              		.loc 1 336 3 view .LVU193
 337:ARM_SEGGER_RTT/SEGGER_RTT_printf.c ****   unsigned FormatFlags;
 618              		.loc 1 337 3 view .LVU194
 338:ARM_SEGGER_RTT/SEGGER_RTT_printf.c ****   unsigned FieldWidth;
 619              		.loc 1 338 3 view .LVU195
 339:ARM_SEGGER_RTT/SEGGER_RTT_printf.c ****   char acBuffer[SEGGER_RTT_PRINTF_BUFFER_SIZE];
 620              		.loc 1 339 3 view .LVU196
 340:ARM_SEGGER_RTT/SEGGER_RTT_printf.c **** 
 341:ARM_SEGGER_RTT/SEGGER_RTT_printf.c ****   BufferDesc.pBuffer        = acBuffer;
 621              		.loc 1 341 3 view .LVU197
 622              		.loc 1 341 29 is_stmt 0 view .LVU198
 623 000a 03AB     		add	r3, sp, #12
 624 000c 1393     		str	r3, [sp, #76]
 342:ARM_SEGGER_RTT/SEGGER_RTT_printf.c ****   BufferDesc.BufferSize     = SEGGER_RTT_PRINTF_BUFFER_SIZE;
 625              		.loc 1 342 3 is_stmt 1 view .LVU199
 626              		.loc 1 342 29 is_stmt 0 view .LVU200
 627 000e 4023     		movs	r3, #64
 628 0010 1493     		str	r3, [sp, #80]
 343:ARM_SEGGER_RTT/SEGGER_RTT_printf.c ****   BufferDesc.Cnt            = 0u;
 629              		.loc 1 343 3 is_stmt 1 view .LVU201
ARM GAS  /var/folders/mx/xtmnkh9x46d2ktwbhj73try40000gn/T//cc0G0E9P.s 			page 19


 630              		.loc 1 343 29 is_stmt 0 view .LVU202
 631 0012 0023     		movs	r3, #0
 632 0014 1593     		str	r3, [sp, #84]
 344:ARM_SEGGER_RTT/SEGGER_RTT_printf.c ****   BufferDesc.RTTBufferIndex = BufferIndex;
 633              		.loc 1 344 3 is_stmt 1 view .LVU203
 634              		.loc 1 344 29 is_stmt 0 view .LVU204
 635 0016 1790     		str	r0, [sp, #92]
 345:ARM_SEGGER_RTT/SEGGER_RTT_printf.c ****   BufferDesc.ReturnValue    = 0;
 636              		.loc 1 345 3 is_stmt 1 view .LVU205
 637              		.loc 1 345 29 is_stmt 0 view .LVU206
 638 0018 1693     		str	r3, [sp, #88]
 639 001a 87E0     		b	.L82
 640              	.LVL53:
 641              	.L89:
 346:ARM_SEGGER_RTT/SEGGER_RTT_printf.c **** 
 347:ARM_SEGGER_RTT/SEGGER_RTT_printf.c ****   do {
 348:ARM_SEGGER_RTT/SEGGER_RTT_printf.c ****     c = *sFormat;
 349:ARM_SEGGER_RTT/SEGGER_RTT_printf.c ****     sFormat++;
 350:ARM_SEGGER_RTT/SEGGER_RTT_printf.c ****     if (c == 0u) {
 351:ARM_SEGGER_RTT/SEGGER_RTT_printf.c ****       break;
 352:ARM_SEGGER_RTT/SEGGER_RTT_printf.c ****     }
 353:ARM_SEGGER_RTT/SEGGER_RTT_printf.c ****     if (c == '%') {
 354:ARM_SEGGER_RTT/SEGGER_RTT_printf.c ****       //
 355:ARM_SEGGER_RTT/SEGGER_RTT_printf.c ****       // Filter out flags
 356:ARM_SEGGER_RTT/SEGGER_RTT_printf.c ****       //
 357:ARM_SEGGER_RTT/SEGGER_RTT_printf.c ****       FormatFlags = 0u;
 642              		.loc 1 357 19 view .LVU207
 643 001c 0020     		movs	r0, #0
 358:ARM_SEGGER_RTT/SEGGER_RTT_printf.c ****       v = 1;
 644              		.loc 1 358 9 view .LVU208
 645 001e 0122     		movs	r2, #1
 646 0020 11E0     		b	.L63
 647              	.LVL54:
 648              	.L60:
 359:ARM_SEGGER_RTT/SEGGER_RTT_printf.c ****       do {
 360:ARM_SEGGER_RTT/SEGGER_RTT_printf.c ****         c = *sFormat;
 361:ARM_SEGGER_RTT/SEGGER_RTT_printf.c ****         switch (c) {
 362:ARM_SEGGER_RTT/SEGGER_RTT_printf.c ****         case '-': FormatFlags |= FORMAT_FLAG_LEFT_JUSTIFY; sFormat++; break;
 649              		.loc 1 362 19 is_stmt 1 view .LVU209
 650              		.loc 1 362 31 is_stmt 0 view .LVU210
 651 0022 40F00100 		orr	r0, r0, #1
 652              	.LVL55:
 653              		.loc 1 362 60 is_stmt 1 view .LVU211
 654              		.loc 1 362 67 is_stmt 0 view .LVU212
 655 0026 0135     		adds	r5, r5, #1
 656              	.LVL56:
 657              		.loc 1 362 71 is_stmt 1 view .LVU213
 658              		.loc 1 362 9 is_stmt 0 view .LVU214
 659 0028 0CE0     		b	.L57
 660              	.L58:
 363:ARM_SEGGER_RTT/SEGGER_RTT_printf.c ****         case '0': FormatFlags |= FORMAT_FLAG_PAD_ZERO;     sFormat++; break;
 661              		.loc 1 363 19 is_stmt 1 view .LVU215
 662              		.loc 1 363 31 is_stmt 0 view .LVU216
 663 002a 40F00200 		orr	r0, r0, #2
 664              	.LVL57:
 665              		.loc 1 363 60 is_stmt 1 view .LVU217
 666              		.loc 1 363 67 is_stmt 0 view .LVU218
ARM GAS  /var/folders/mx/xtmnkh9x46d2ktwbhj73try40000gn/T//cc0G0E9P.s 			page 20


 667 002e 0135     		adds	r5, r5, #1
 668              	.LVL58:
 669              		.loc 1 363 71 is_stmt 1 view .LVU219
 670              		.loc 1 363 9 is_stmt 0 view .LVU220
 671 0030 08E0     		b	.L57
 672              	.L61:
 364:ARM_SEGGER_RTT/SEGGER_RTT_printf.c ****         case '+': FormatFlags |= FORMAT_FLAG_PRINT_SIGN;   sFormat++; break;
 673              		.loc 1 364 19 is_stmt 1 view .LVU221
 674              		.loc 1 364 31 is_stmt 0 view .LVU222
 675 0032 40F00400 		orr	r0, r0, #4
 676              	.LVL59:
 677              		.loc 1 364 60 is_stmt 1 view .LVU223
 678              		.loc 1 364 67 is_stmt 0 view .LVU224
 679 0036 0135     		adds	r5, r5, #1
 680              	.LVL60:
 681              		.loc 1 364 71 is_stmt 1 view .LVU225
 682              		.loc 1 364 9 is_stmt 0 view .LVU226
 683 0038 04E0     		b	.L57
 684              	.L62:
 365:ARM_SEGGER_RTT/SEGGER_RTT_printf.c ****         case '#': FormatFlags |= FORMAT_FLAG_ALTERNATE;    sFormat++; break;
 685              		.loc 1 365 19 is_stmt 1 view .LVU227
 686              		.loc 1 365 31 is_stmt 0 view .LVU228
 687 003a 40F00800 		orr	r0, r0, #8
 688              	.LVL61:
 689              		.loc 1 365 60 is_stmt 1 view .LVU229
 690              		.loc 1 365 67 is_stmt 0 view .LVU230
 691 003e 0135     		adds	r5, r5, #1
 692              	.LVL62:
 693              		.loc 1 365 71 is_stmt 1 view .LVU231
 694              		.loc 1 365 9 is_stmt 0 view .LVU232
 695 0040 00E0     		b	.L57
 696              	.L85:
 360:ARM_SEGGER_RTT/SEGGER_RTT_printf.c ****         switch (c) {
 697              		.loc 1 360 11 view .LVU233
 698 0042 0022     		movs	r2, #0
 699              	.LVL63:
 700              	.L57:
 366:ARM_SEGGER_RTT/SEGGER_RTT_printf.c ****         default:  v = 0; break;
 367:ARM_SEGGER_RTT/SEGGER_RTT_printf.c ****         }
 368:ARM_SEGGER_RTT/SEGGER_RTT_printf.c ****       } while (v);
 701              		.loc 1 368 15 is_stmt 1 view .LVU234
 702              		.loc 1 368 7 is_stmt 0 view .LVU235
 703 0044 12B3     		cbz	r2, .L65
 704              	.LVL64:
 705              	.L63:
 359:ARM_SEGGER_RTT/SEGGER_RTT_printf.c ****         c = *sFormat;
 706              		.loc 1 359 7 is_stmt 1 view .LVU236
 360:ARM_SEGGER_RTT/SEGGER_RTT_printf.c ****         switch (c) {
 707              		.loc 1 360 9 view .LVU237
 360:ARM_SEGGER_RTT/SEGGER_RTT_printf.c ****         switch (c) {
 708              		.loc 1 360 11 is_stmt 0 view .LVU238
 709 0046 2B78     		ldrb	r3, [r5]	@ zero_extendqisi2
 710              	.LVL65:
 361:ARM_SEGGER_RTT/SEGGER_RTT_printf.c ****         case '-': FormatFlags |= FORMAT_FLAG_LEFT_JUSTIFY; sFormat++; break;
 711              		.loc 1 361 9 is_stmt 1 view .LVU239
 712 0048 233B     		subs	r3, r3, #35
 713              	.LVL66:
ARM GAS  /var/folders/mx/xtmnkh9x46d2ktwbhj73try40000gn/T//cc0G0E9P.s 			page 21


 361:ARM_SEGGER_RTT/SEGGER_RTT_printf.c ****         case '-': FormatFlags |= FORMAT_FLAG_LEFT_JUSTIFY; sFormat++; break;
 714              		.loc 1 361 9 is_stmt 0 view .LVU240
 715 004a 0D2B     		cmp	r3, #13
 716 004c F9D8     		bhi	.L85
 717 004e 01A1     		adr	r1, .L59
 718 0050 51F823F0 		ldr	pc, [r1, r3, lsl #2]
 719              		.p2align 2
 720              	.L59:
 721 0054 3B000000 		.word	.L62+1
 722 0058 43000000 		.word	.L85+1
 723 005c 43000000 		.word	.L85+1
 724 0060 43000000 		.word	.L85+1
 725 0064 43000000 		.word	.L85+1
 726 0068 43000000 		.word	.L85+1
 727 006c 43000000 		.word	.L85+1
 728 0070 43000000 		.word	.L85+1
 729 0074 33000000 		.word	.L61+1
 730 0078 43000000 		.word	.L85+1
 731 007c 23000000 		.word	.L60+1
 732 0080 43000000 		.word	.L85+1
 733 0084 43000000 		.word	.L85+1
 734 0088 2B000000 		.word	.L58+1
 735              	.LVL67:
 736              		.p2align 1
 737              	.L65:
 369:ARM_SEGGER_RTT/SEGGER_RTT_printf.c ****       //
 370:ARM_SEGGER_RTT/SEGGER_RTT_printf.c ****       // filter out field with
 371:ARM_SEGGER_RTT/SEGGER_RTT_printf.c ****       //
 372:ARM_SEGGER_RTT/SEGGER_RTT_printf.c ****       FieldWidth = 0u;
 373:ARM_SEGGER_RTT/SEGGER_RTT_printf.c ****       do {
 738              		.loc 1 373 7 is_stmt 1 view .LVU241
 374:ARM_SEGGER_RTT/SEGGER_RTT_printf.c ****         c = *sFormat;
 739              		.loc 1 374 9 view .LVU242
 740              		.loc 1 374 11 is_stmt 0 view .LVU243
 741 008c 2B78     		ldrb	r3, [r5]	@ zero_extendqisi2
 742              	.LVL68:
 375:ARM_SEGGER_RTT/SEGGER_RTT_printf.c ****         if ((c < '0') || (c > '9')) {
 743              		.loc 1 375 9 is_stmt 1 view .LVU244
 744              		.loc 1 375 23 is_stmt 0 view .LVU245
 745 008e A3F13001 		sub	r1, r3, #48
 746 0092 C9B2     		uxtb	r1, r1
 747              		.loc 1 375 12 view .LVU246
 748 0094 0929     		cmp	r1, #9
 749 0096 07D8     		bhi	.L64
 376:ARM_SEGGER_RTT/SEGGER_RTT_printf.c ****           break;
 377:ARM_SEGGER_RTT/SEGGER_RTT_printf.c ****         }
 378:ARM_SEGGER_RTT/SEGGER_RTT_printf.c ****         sFormat++;
 750              		.loc 1 378 9 is_stmt 1 view .LVU247
 751              		.loc 1 378 16 is_stmt 0 view .LVU248
 752 0098 0135     		adds	r5, r5, #1
 753              	.LVL69:
 379:ARM_SEGGER_RTT/SEGGER_RTT_printf.c ****         FieldWidth = (FieldWidth * 10u) + ((unsigned)c - '0');
 754              		.loc 1 379 9 is_stmt 1 view .LVU249
 755              		.loc 1 379 34 is_stmt 0 view .LVU250
 756 009a 02EB8202 		add	r2, r2, r2, lsl #2
 757              	.LVL70:
 758              		.loc 1 379 41 view .LVU251
ARM GAS  /var/folders/mx/xtmnkh9x46d2ktwbhj73try40000gn/T//cc0G0E9P.s 			page 22


 759 009e 03EB4203 		add	r3, r3, r2, lsl #1
 760              	.LVL71:
 761              		.loc 1 379 20 view .LVU252
 762 00a2 A3F13002 		sub	r2, r3, #48
 763              	.LVL72:
 380:ARM_SEGGER_RTT/SEGGER_RTT_printf.c ****       } while (1);
 764              		.loc 1 380 15 is_stmt 1 view .LVU253
 374:ARM_SEGGER_RTT/SEGGER_RTT_printf.c ****         if ((c < '0') || (c > '9')) {
 765              		.loc 1 374 11 is_stmt 0 view .LVU254
 766 00a6 F1E7     		b	.L65
 767              	.LVL73:
 768              	.L64:
 381:ARM_SEGGER_RTT/SEGGER_RTT_printf.c **** 
 382:ARM_SEGGER_RTT/SEGGER_RTT_printf.c ****       //
 383:ARM_SEGGER_RTT/SEGGER_RTT_printf.c ****       // Filter out precision (number of digits to display)
 384:ARM_SEGGER_RTT/SEGGER_RTT_printf.c ****       //
 385:ARM_SEGGER_RTT/SEGGER_RTT_printf.c ****       NumDigits = 0u;
 769              		.loc 1 385 7 is_stmt 1 view .LVU255
 386:ARM_SEGGER_RTT/SEGGER_RTT_printf.c ****       c = *sFormat;
 770              		.loc 1 386 7 view .LVU256
 387:ARM_SEGGER_RTT/SEGGER_RTT_printf.c ****       if (c == '.') {
 771              		.loc 1 387 7 view .LVU257
 772              		.loc 1 387 10 is_stmt 0 view .LVU258
 773 00a8 2E2B     		cmp	r3, #46
 774 00aa 02D0     		beq	.L88
 385:ARM_SEGGER_RTT/SEGGER_RTT_printf.c ****       c = *sFormat;
 775              		.loc 1 385 17 view .LVU259
 776 00ac 0023     		movs	r3, #0
 777              	.LVL74:
 778              	.L66:
 388:ARM_SEGGER_RTT/SEGGER_RTT_printf.c ****         sFormat++;
 389:ARM_SEGGER_RTT/SEGGER_RTT_printf.c ****         do {
 390:ARM_SEGGER_RTT/SEGGER_RTT_printf.c ****           c = *sFormat;
 391:ARM_SEGGER_RTT/SEGGER_RTT_printf.c ****           if ((c < '0') || (c > '9')) {
 392:ARM_SEGGER_RTT/SEGGER_RTT_printf.c ****             break;
 393:ARM_SEGGER_RTT/SEGGER_RTT_printf.c ****           }
 394:ARM_SEGGER_RTT/SEGGER_RTT_printf.c ****           sFormat++;
 395:ARM_SEGGER_RTT/SEGGER_RTT_printf.c ****           NumDigits = NumDigits * 10u + ((unsigned)c - '0');
 396:ARM_SEGGER_RTT/SEGGER_RTT_printf.c ****         } while (1);
 397:ARM_SEGGER_RTT/SEGGER_RTT_printf.c ****       }
 398:ARM_SEGGER_RTT/SEGGER_RTT_printf.c ****       //
 399:ARM_SEGGER_RTT/SEGGER_RTT_printf.c ****       // Filter out length modifier
 400:ARM_SEGGER_RTT/SEGGER_RTT_printf.c ****       //
 401:ARM_SEGGER_RTT/SEGGER_RTT_printf.c ****       c = *sFormat;
 779              		.loc 1 401 7 is_stmt 1 view .LVU260
 780              		.loc 1 401 9 is_stmt 0 view .LVU261
 781 00ae 2C78     		ldrb	r4, [r5]	@ zero_extendqisi2
 782              	.LVL75:
 783              		.loc 1 401 9 view .LVU262
 784 00b0 10E0     		b	.L70
 785              	.LVL76:
 786              	.L88:
 388:ARM_SEGGER_RTT/SEGGER_RTT_printf.c ****         sFormat++;
 787              		.loc 1 388 9 is_stmt 1 view .LVU263
 388:ARM_SEGGER_RTT/SEGGER_RTT_printf.c ****         sFormat++;
 788              		.loc 1 388 16 is_stmt 0 view .LVU264
 789 00b2 0135     		adds	r5, r5, #1
ARM GAS  /var/folders/mx/xtmnkh9x46d2ktwbhj73try40000gn/T//cc0G0E9P.s 			page 23


 790              	.LVL77:
 385:ARM_SEGGER_RTT/SEGGER_RTT_printf.c ****       c = *sFormat;
 791              		.loc 1 385 17 view .LVU265
 792 00b4 0023     		movs	r3, #0
 793              	.LVL78:
 794              	.L67:
 389:ARM_SEGGER_RTT/SEGGER_RTT_printf.c ****           c = *sFormat;
 795              		.loc 1 389 9 is_stmt 1 view .LVU266
 390:ARM_SEGGER_RTT/SEGGER_RTT_printf.c ****           if ((c < '0') || (c > '9')) {
 796              		.loc 1 390 11 view .LVU267
 390:ARM_SEGGER_RTT/SEGGER_RTT_printf.c ****           if ((c < '0') || (c > '9')) {
 797              		.loc 1 390 13 is_stmt 0 view .LVU268
 798 00b6 2978     		ldrb	r1, [r5]	@ zero_extendqisi2
 799              	.LVL79:
 391:ARM_SEGGER_RTT/SEGGER_RTT_printf.c ****             break;
 800              		.loc 1 391 11 is_stmt 1 view .LVU269
 391:ARM_SEGGER_RTT/SEGGER_RTT_printf.c ****             break;
 801              		.loc 1 391 25 is_stmt 0 view .LVU270
 802 00b8 A1F13004 		sub	r4, r1, #48
 803 00bc E4B2     		uxtb	r4, r4
 391:ARM_SEGGER_RTT/SEGGER_RTT_printf.c ****             break;
 804              		.loc 1 391 14 view .LVU271
 805 00be 092C     		cmp	r4, #9
 806 00c0 F5D8     		bhi	.L66
 394:ARM_SEGGER_RTT/SEGGER_RTT_printf.c ****           NumDigits = NumDigits * 10u + ((unsigned)c - '0');
 807              		.loc 1 394 11 is_stmt 1 view .LVU272
 394:ARM_SEGGER_RTT/SEGGER_RTT_printf.c ****           NumDigits = NumDigits * 10u + ((unsigned)c - '0');
 808              		.loc 1 394 18 is_stmt 0 view .LVU273
 809 00c2 0135     		adds	r5, r5, #1
 810              	.LVL80:
 395:ARM_SEGGER_RTT/SEGGER_RTT_printf.c ****         } while (1);
 811              		.loc 1 395 11 is_stmt 1 view .LVU274
 395:ARM_SEGGER_RTT/SEGGER_RTT_printf.c ****         } while (1);
 812              		.loc 1 395 33 is_stmt 0 view .LVU275
 813 00c4 03EB8303 		add	r3, r3, r3, lsl #2
 814              	.LVL81:
 395:ARM_SEGGER_RTT/SEGGER_RTT_printf.c ****         } while (1);
 815              		.loc 1 395 39 view .LVU276
 816 00c8 01EB4303 		add	r3, r1, r3, lsl #1
 395:ARM_SEGGER_RTT/SEGGER_RTT_printf.c ****         } while (1);
 817              		.loc 1 395 21 view .LVU277
 818 00cc 303B     		subs	r3, r3, #48
 819              	.LVL82:
 396:ARM_SEGGER_RTT/SEGGER_RTT_printf.c ****       }
 820              		.loc 1 396 17 is_stmt 1 view .LVU278
 390:ARM_SEGGER_RTT/SEGGER_RTT_printf.c ****           if ((c < '0') || (c > '9')) {
 821              		.loc 1 390 13 is_stmt 0 view .LVU279
 822 00ce F2E7     		b	.L67
 823              	.LVL83:
 824              	.L68:
 402:ARM_SEGGER_RTT/SEGGER_RTT_printf.c ****       do {
 403:ARM_SEGGER_RTT/SEGGER_RTT_printf.c ****         if ((c == 'l') || (c == 'h')) {
 404:ARM_SEGGER_RTT/SEGGER_RTT_printf.c ****           sFormat++;
 825              		.loc 1 404 11 is_stmt 1 view .LVU280
 405:ARM_SEGGER_RTT/SEGGER_RTT_printf.c ****           c = *sFormat;
 826              		.loc 1 405 11 view .LVU281
 827              		.loc 1 405 13 is_stmt 0 view .LVU282
ARM GAS  /var/folders/mx/xtmnkh9x46d2ktwbhj73try40000gn/T//cc0G0E9P.s 			page 24


 828 00d0 15F8014F 		ldrb	r4, [r5, #1]!	@ zero_extendqisi2
 829              	.LVL84:
 406:ARM_SEGGER_RTT/SEGGER_RTT_printf.c ****         } else {
 407:ARM_SEGGER_RTT/SEGGER_RTT_printf.c ****           break;
 408:ARM_SEGGER_RTT/SEGGER_RTT_printf.c ****         }
 409:ARM_SEGGER_RTT/SEGGER_RTT_printf.c ****       } while (1);
 830              		.loc 1 409 15 is_stmt 1 view .LVU283
 831              	.L70:
 402:ARM_SEGGER_RTT/SEGGER_RTT_printf.c ****         if ((c == 'l') || (c == 'h')) {
 832              		.loc 1 402 7 view .LVU284
 403:ARM_SEGGER_RTT/SEGGER_RTT_printf.c ****           sFormat++;
 833              		.loc 1 403 9 view .LVU285
 403:ARM_SEGGER_RTT/SEGGER_RTT_printf.c ****           sFormat++;
 834              		.loc 1 403 12 is_stmt 0 view .LVU286
 835 00d4 6C2C     		cmp	r4, #108
 836 00d6 FBD0     		beq	.L68
 403:ARM_SEGGER_RTT/SEGGER_RTT_printf.c ****           sFormat++;
 837              		.loc 1 403 24 discriminator 1 view .LVU287
 838 00d8 682C     		cmp	r4, #104
 839 00da F9D0     		beq	.L68
 410:ARM_SEGGER_RTT/SEGGER_RTT_printf.c ****       //
 411:ARM_SEGGER_RTT/SEGGER_RTT_printf.c ****       // Handle specifiers
 412:ARM_SEGGER_RTT/SEGGER_RTT_printf.c ****       //
 413:ARM_SEGGER_RTT/SEGGER_RTT_printf.c ****       switch (c) {
 840              		.loc 1 413 7 is_stmt 1 view .LVU288
 841 00dc 252C     		cmp	r4, #37
 842 00de 6DD0     		beq	.L71
 843 00e0 20D3     		bcc	.L72
 844 00e2 782C     		cmp	r4, #120
 845 00e4 1ED8     		bhi	.L72
 846 00e6 582C     		cmp	r4, #88
 847 00e8 1CD3     		bcc	.L72
 848 00ea 583C     		subs	r4, r4, #88
 849              	.LVL85:
 850              		.loc 1 413 7 is_stmt 0 view .LVU289
 851 00ec 202C     		cmp	r4, #32
 852 00ee 19D8     		bhi	.L72
 853 00f0 DFE804F0 		tbb	[pc, r4]
 854              	.L74:
 855 00f4 3D       		.byte	(.L73-.L74)/2
 856 00f5 18       		.byte	(.L72-.L74)/2
 857 00f6 18       		.byte	(.L72-.L74)/2
 858 00f7 18       		.byte	(.L72-.L74)/2
 859 00f8 18       		.byte	(.L72-.L74)/2
 860 00f9 18       		.byte	(.L72-.L74)/2
 861 00fa 18       		.byte	(.L72-.L74)/2
 862 00fb 18       		.byte	(.L72-.L74)/2
 863 00fc 18       		.byte	(.L72-.L74)/2
 864 00fd 18       		.byte	(.L72-.L74)/2
 865 00fe 18       		.byte	(.L72-.L74)/2
 866 00ff 11       		.byte	(.L79-.L74)/2
 867 0100 27       		.byte	(.L78-.L74)/2
 868 0101 18       		.byte	(.L72-.L74)/2
 869 0102 18       		.byte	(.L72-.L74)/2
 870 0103 18       		.byte	(.L72-.L74)/2
 871 0104 18       		.byte	(.L72-.L74)/2
 872 0105 18       		.byte	(.L72-.L74)/2
ARM GAS  /var/folders/mx/xtmnkh9x46d2ktwbhj73try40000gn/T//cc0G0E9P.s 			page 25


 873 0106 18       		.byte	(.L72-.L74)/2
 874 0107 18       		.byte	(.L72-.L74)/2
 875 0108 18       		.byte	(.L72-.L74)/2
 876 0109 18       		.byte	(.L72-.L74)/2
 877 010a 18       		.byte	(.L72-.L74)/2
 878 010b 18       		.byte	(.L72-.L74)/2
 879 010c 57       		.byte	(.L77-.L74)/2
 880 010d 18       		.byte	(.L72-.L74)/2
 881 010e 18       		.byte	(.L72-.L74)/2
 882 010f 48       		.byte	(.L76-.L74)/2
 883 0110 18       		.byte	(.L72-.L74)/2
 884 0111 32       		.byte	(.L75-.L74)/2
 885 0112 18       		.byte	(.L72-.L74)/2
 886 0113 18       		.byte	(.L72-.L74)/2
 887 0114 3D       		.byte	(.L73-.L74)/2
 888 0115 00       		.p2align 1
 889              	.L79:
 890              	.LBB2:
 414:ARM_SEGGER_RTT/SEGGER_RTT_printf.c ****       case 'c': {
 415:ARM_SEGGER_RTT/SEGGER_RTT_printf.c ****         char c0;
 891              		.loc 1 415 9 is_stmt 1 view .LVU290
 416:ARM_SEGGER_RTT/SEGGER_RTT_printf.c ****         v = va_arg(*pParamList, int);
 892              		.loc 1 416 9 view .LVU291
 893              		.loc 1 416 11 is_stmt 0 view .LVU292
 894 0116 3368     		ldr	r3, [r6]
 895              	.LVL86:
 896              		.loc 1 416 11 view .LVU293
 897 0118 1A1D     		adds	r2, r3, #4
 898              	.LVL87:
 899              		.loc 1 416 11 view .LVU294
 900 011a 3260     		str	r2, [r6]
 417:ARM_SEGGER_RTT/SEGGER_RTT_printf.c ****         c0 = (char)v;
 901              		.loc 1 417 9 is_stmt 1 view .LVU295
 902              	.LVL88:
 418:ARM_SEGGER_RTT/SEGGER_RTT_printf.c ****         _StoreChar(&BufferDesc, c0);
 903              		.loc 1 418 9 view .LVU296
 904 011c 1978     		ldrb	r1, [r3]	@ zero_extendqisi2
 905 011e 13A8     		add	r0, sp, #76
 906              	.LVL89:
 907              		.loc 1 418 9 is_stmt 0 view .LVU297
 908 0120 FFF7FEFF 		bl	_StoreChar
 909              	.LVL90:
 419:ARM_SEGGER_RTT/SEGGER_RTT_printf.c ****         break;
 910              		.loc 1 419 9 is_stmt 1 view .LVU298
 911              	.L72:
 912              		.loc 1 419 9 is_stmt 0 view .LVU299
 913              	.LBE2:
 420:ARM_SEGGER_RTT/SEGGER_RTT_printf.c ****       }
 421:ARM_SEGGER_RTT/SEGGER_RTT_printf.c ****       case 'd':
 422:ARM_SEGGER_RTT/SEGGER_RTT_printf.c ****         v = va_arg(*pParamList, int);
 423:ARM_SEGGER_RTT/SEGGER_RTT_printf.c ****         _PrintInt(&BufferDesc, v, 10u, NumDigits, FieldWidth, FormatFlags);
 424:ARM_SEGGER_RTT/SEGGER_RTT_printf.c ****         break;
 425:ARM_SEGGER_RTT/SEGGER_RTT_printf.c ****       case 'u':
 426:ARM_SEGGER_RTT/SEGGER_RTT_printf.c ****         v = va_arg(*pParamList, int);
 427:ARM_SEGGER_RTT/SEGGER_RTT_printf.c ****         _PrintUnsigned(&BufferDesc, (unsigned)v, 10u, NumDigits, FieldWidth, FormatFlags);
 428:ARM_SEGGER_RTT/SEGGER_RTT_printf.c ****         break;
 429:ARM_SEGGER_RTT/SEGGER_RTT_printf.c ****       case 'x':
ARM GAS  /var/folders/mx/xtmnkh9x46d2ktwbhj73try40000gn/T//cc0G0E9P.s 			page 26


 430:ARM_SEGGER_RTT/SEGGER_RTT_printf.c ****       case 'X':
 431:ARM_SEGGER_RTT/SEGGER_RTT_printf.c ****         v = va_arg(*pParamList, int);
 432:ARM_SEGGER_RTT/SEGGER_RTT_printf.c ****         _PrintUnsigned(&BufferDesc, (unsigned)v, 16u, NumDigits, FieldWidth, FormatFlags);
 433:ARM_SEGGER_RTT/SEGGER_RTT_printf.c ****         break;
 434:ARM_SEGGER_RTT/SEGGER_RTT_printf.c ****       case 's':
 435:ARM_SEGGER_RTT/SEGGER_RTT_printf.c ****         {
 436:ARM_SEGGER_RTT/SEGGER_RTT_printf.c ****           const char * s = va_arg(*pParamList, const char *);
 437:ARM_SEGGER_RTT/SEGGER_RTT_printf.c ****           do {
 438:ARM_SEGGER_RTT/SEGGER_RTT_printf.c ****             c = *s;
 439:ARM_SEGGER_RTT/SEGGER_RTT_printf.c ****             s++;
 440:ARM_SEGGER_RTT/SEGGER_RTT_printf.c ****             if (c == '\0') {
 441:ARM_SEGGER_RTT/SEGGER_RTT_printf.c ****               break;
 442:ARM_SEGGER_RTT/SEGGER_RTT_printf.c ****             }
 443:ARM_SEGGER_RTT/SEGGER_RTT_printf.c ****            _StoreChar(&BufferDesc, c);
 444:ARM_SEGGER_RTT/SEGGER_RTT_printf.c ****           } while (BufferDesc.ReturnValue >= 0);
 445:ARM_SEGGER_RTT/SEGGER_RTT_printf.c ****         }
 446:ARM_SEGGER_RTT/SEGGER_RTT_printf.c ****         break;
 447:ARM_SEGGER_RTT/SEGGER_RTT_printf.c ****       case 'p':
 448:ARM_SEGGER_RTT/SEGGER_RTT_printf.c ****         v = va_arg(*pParamList, int);
 449:ARM_SEGGER_RTT/SEGGER_RTT_printf.c ****         _PrintUnsigned(&BufferDesc, (unsigned)v, 16u, 8u, 8u, 0u);
 450:ARM_SEGGER_RTT/SEGGER_RTT_printf.c ****         break;
 451:ARM_SEGGER_RTT/SEGGER_RTT_printf.c ****       case '%':
 452:ARM_SEGGER_RTT/SEGGER_RTT_printf.c ****         _StoreChar(&BufferDesc, '%');
 453:ARM_SEGGER_RTT/SEGGER_RTT_printf.c ****         break;
 454:ARM_SEGGER_RTT/SEGGER_RTT_printf.c ****       default:
 455:ARM_SEGGER_RTT/SEGGER_RTT_printf.c ****         break;
 456:ARM_SEGGER_RTT/SEGGER_RTT_printf.c ****       }
 457:ARM_SEGGER_RTT/SEGGER_RTT_printf.c ****       sFormat++;
 914              		.loc 1 457 7 is_stmt 1 view .LVU300
 915              		.loc 1 457 14 is_stmt 0 view .LVU301
 916 0124 0135     		adds	r5, r5, #1
 917              	.LVL91:
 918              	.L81:
 458:ARM_SEGGER_RTT/SEGGER_RTT_printf.c ****     } else {
 459:ARM_SEGGER_RTT/SEGGER_RTT_printf.c ****       _StoreChar(&BufferDesc, c);
 460:ARM_SEGGER_RTT/SEGGER_RTT_printf.c ****     }
 461:ARM_SEGGER_RTT/SEGGER_RTT_printf.c ****   } while (BufferDesc.ReturnValue >= 0);
 919              		.loc 1 461 11 is_stmt 1 view .LVU302
 920              		.loc 1 461 22 is_stmt 0 view .LVU303
 921 0126 169B     		ldr	r3, [sp, #88]
 922              		.loc 1 461 3 view .LVU304
 923 0128 002B     		cmp	r3, #0
 924 012a 4CDB     		blt	.L55
 925              	.L82:
 347:ARM_SEGGER_RTT/SEGGER_RTT_printf.c ****     c = *sFormat;
 926              		.loc 1 347 3 is_stmt 1 view .LVU305
 348:ARM_SEGGER_RTT/SEGGER_RTT_printf.c ****     sFormat++;
 927              		.loc 1 348 5 view .LVU306
 348:ARM_SEGGER_RTT/SEGGER_RTT_printf.c ****     sFormat++;
 928              		.loc 1 348 7 is_stmt 0 view .LVU307
 929 012c 15F8011B 		ldrb	r1, [r5], #1	@ zero_extendqisi2
 930              	.LVL92:
 349:ARM_SEGGER_RTT/SEGGER_RTT_printf.c ****     if (c == 0u) {
 931              		.loc 1 349 5 is_stmt 1 view .LVU308
 350:ARM_SEGGER_RTT/SEGGER_RTT_printf.c ****       break;
 932              		.loc 1 350 5 view .LVU309
 350:ARM_SEGGER_RTT/SEGGER_RTT_printf.c ****       break;
ARM GAS  /var/folders/mx/xtmnkh9x46d2ktwbhj73try40000gn/T//cc0G0E9P.s 			page 27


 933              		.loc 1 350 8 is_stmt 0 view .LVU310
 934 0130 0029     		cmp	r1, #0
 935 0132 48D0     		beq	.L55
 353:ARM_SEGGER_RTT/SEGGER_RTT_printf.c ****       //
 936              		.loc 1 353 5 is_stmt 1 view .LVU311
 353:ARM_SEGGER_RTT/SEGGER_RTT_printf.c ****       //
 937              		.loc 1 353 8 is_stmt 0 view .LVU312
 938 0134 2529     		cmp	r1, #37
 939 0136 3FF471AF 		beq	.L89
 459:ARM_SEGGER_RTT/SEGGER_RTT_printf.c ****     }
 940              		.loc 1 459 7 is_stmt 1 view .LVU313
 941 013a 13A8     		add	r0, sp, #76
 942 013c FFF7FEFF 		bl	_StoreChar
 943              	.LVL93:
 459:ARM_SEGGER_RTT/SEGGER_RTT_printf.c ****     }
 944              		.loc 1 459 7 is_stmt 0 view .LVU314
 945 0140 F1E7     		b	.L81
 946              	.LVL94:
 947              	.L78:
 422:ARM_SEGGER_RTT/SEGGER_RTT_printf.c ****         _PrintInt(&BufferDesc, v, 10u, NumDigits, FieldWidth, FormatFlags);
 948              		.loc 1 422 9 is_stmt 1 view .LVU315
 422:ARM_SEGGER_RTT/SEGGER_RTT_printf.c ****         _PrintInt(&BufferDesc, v, 10u, NumDigits, FieldWidth, FormatFlags);
 949              		.loc 1 422 11 is_stmt 0 view .LVU316
 950 0142 3168     		ldr	r1, [r6]
 951 0144 0C1D     		adds	r4, r1, #4
 952 0146 3460     		str	r4, [r6]
 953 0148 0968     		ldr	r1, [r1]
 423:ARM_SEGGER_RTT/SEGGER_RTT_printf.c ****         break;
 954              		.loc 1 423 9 is_stmt 1 view .LVU317
 955 014a 0190     		str	r0, [sp, #4]
 956 014c 0092     		str	r2, [sp]
 957 014e 0A22     		movs	r2, #10
 958              	.LVL95:
 423:ARM_SEGGER_RTT/SEGGER_RTT_printf.c ****         break;
 959              		.loc 1 423 9 is_stmt 0 view .LVU318
 960 0150 13A8     		add	r0, sp, #76
 961              	.LVL96:
 423:ARM_SEGGER_RTT/SEGGER_RTT_printf.c ****         break;
 962              		.loc 1 423 9 view .LVU319
 963 0152 FFF7FEFF 		bl	_PrintInt
 964              	.LVL97:
 424:ARM_SEGGER_RTT/SEGGER_RTT_printf.c ****       case 'u':
 965              		.loc 1 424 9 is_stmt 1 view .LVU320
 966 0156 E5E7     		b	.L72
 967              	.LVL98:
 968              	.L75:
 426:ARM_SEGGER_RTT/SEGGER_RTT_printf.c ****         _PrintUnsigned(&BufferDesc, (unsigned)v, 10u, NumDigits, FieldWidth, FormatFlags);
 969              		.loc 1 426 9 view .LVU321
 426:ARM_SEGGER_RTT/SEGGER_RTT_printf.c ****         _PrintUnsigned(&BufferDesc, (unsigned)v, 10u, NumDigits, FieldWidth, FormatFlags);
 970              		.loc 1 426 11 is_stmt 0 view .LVU322
 971 0158 3168     		ldr	r1, [r6]
 972 015a 0C1D     		adds	r4, r1, #4
 973 015c 3460     		str	r4, [r6]
 974 015e 0968     		ldr	r1, [r1]
 427:ARM_SEGGER_RTT/SEGGER_RTT_printf.c ****         break;
 975              		.loc 1 427 9 is_stmt 1 view .LVU323
 976 0160 0190     		str	r0, [sp, #4]
ARM GAS  /var/folders/mx/xtmnkh9x46d2ktwbhj73try40000gn/T//cc0G0E9P.s 			page 28


 977 0162 0092     		str	r2, [sp]
 978 0164 0A22     		movs	r2, #10
 979              	.LVL99:
 427:ARM_SEGGER_RTT/SEGGER_RTT_printf.c ****         break;
 980              		.loc 1 427 9 is_stmt 0 view .LVU324
 981 0166 13A8     		add	r0, sp, #76
 982              	.LVL100:
 427:ARM_SEGGER_RTT/SEGGER_RTT_printf.c ****         break;
 983              		.loc 1 427 9 view .LVU325
 984 0168 FFF7FEFF 		bl	_PrintUnsigned
 985              	.LVL101:
 428:ARM_SEGGER_RTT/SEGGER_RTT_printf.c ****       case 'x':
 986              		.loc 1 428 9 is_stmt 1 view .LVU326
 987 016c DAE7     		b	.L72
 988              	.LVL102:
 989              	.L73:
 431:ARM_SEGGER_RTT/SEGGER_RTT_printf.c ****         _PrintUnsigned(&BufferDesc, (unsigned)v, 16u, NumDigits, FieldWidth, FormatFlags);
 990              		.loc 1 431 9 view .LVU327
 431:ARM_SEGGER_RTT/SEGGER_RTT_printf.c ****         _PrintUnsigned(&BufferDesc, (unsigned)v, 16u, NumDigits, FieldWidth, FormatFlags);
 991              		.loc 1 431 11 is_stmt 0 view .LVU328
 992 016e 3168     		ldr	r1, [r6]
 993 0170 0C1D     		adds	r4, r1, #4
 994 0172 3460     		str	r4, [r6]
 995 0174 0968     		ldr	r1, [r1]
 432:ARM_SEGGER_RTT/SEGGER_RTT_printf.c ****         break;
 996              		.loc 1 432 9 is_stmt 1 view .LVU329
 997 0176 0190     		str	r0, [sp, #4]
 998 0178 0092     		str	r2, [sp]
 999 017a 1022     		movs	r2, #16
 1000              	.LVL103:
 432:ARM_SEGGER_RTT/SEGGER_RTT_printf.c ****         break;
 1001              		.loc 1 432 9 is_stmt 0 view .LVU330
 1002 017c 13A8     		add	r0, sp, #76
 1003              	.LVL104:
 432:ARM_SEGGER_RTT/SEGGER_RTT_printf.c ****         break;
 1004              		.loc 1 432 9 view .LVU331
 1005 017e FFF7FEFF 		bl	_PrintUnsigned
 1006              	.LVL105:
 433:ARM_SEGGER_RTT/SEGGER_RTT_printf.c ****       case 's':
 1007              		.loc 1 433 9 is_stmt 1 view .LVU332
 1008 0182 CFE7     		b	.L72
 1009              	.LVL106:
 1010              	.L76:
 1011              	.LBB3:
 436:ARM_SEGGER_RTT/SEGGER_RTT_printf.c ****           do {
 1012              		.loc 1 436 11 view .LVU333
 436:ARM_SEGGER_RTT/SEGGER_RTT_printf.c ****           do {
 1013              		.loc 1 436 24 is_stmt 0 view .LVU334
 1014 0184 3368     		ldr	r3, [r6]
 1015              	.LVL107:
 436:ARM_SEGGER_RTT/SEGGER_RTT_printf.c ****           do {
 1016              		.loc 1 436 24 view .LVU335
 1017 0186 1A1D     		adds	r2, r3, #4
 1018              	.LVL108:
 436:ARM_SEGGER_RTT/SEGGER_RTT_printf.c ****           do {
 1019              		.loc 1 436 24 view .LVU336
 1020 0188 3260     		str	r2, [r6]
ARM GAS  /var/folders/mx/xtmnkh9x46d2ktwbhj73try40000gn/T//cc0G0E9P.s 			page 29


 1021 018a 1C68     		ldr	r4, [r3]
 1022              	.LVL109:
 1023              	.L80:
 437:ARM_SEGGER_RTT/SEGGER_RTT_printf.c ****             c = *s;
 1024              		.loc 1 437 11 is_stmt 1 view .LVU337
 438:ARM_SEGGER_RTT/SEGGER_RTT_printf.c ****             s++;
 1025              		.loc 1 438 13 view .LVU338
 438:ARM_SEGGER_RTT/SEGGER_RTT_printf.c ****             s++;
 1026              		.loc 1 438 15 is_stmt 0 view .LVU339
 1027 018c 14F8011B 		ldrb	r1, [r4], #1	@ zero_extendqisi2
 1028              	.LVL110:
 439:ARM_SEGGER_RTT/SEGGER_RTT_printf.c ****             if (c == '\0') {
 1029              		.loc 1 439 13 is_stmt 1 view .LVU340
 440:ARM_SEGGER_RTT/SEGGER_RTT_printf.c ****               break;
 1030              		.loc 1 440 13 view .LVU341
 440:ARM_SEGGER_RTT/SEGGER_RTT_printf.c ****               break;
 1031              		.loc 1 440 16 is_stmt 0 view .LVU342
 1032 0190 0029     		cmp	r1, #0
 1033 0192 C7D0     		beq	.L72
 443:ARM_SEGGER_RTT/SEGGER_RTT_printf.c ****           } while (BufferDesc.ReturnValue >= 0);
 1034              		.loc 1 443 12 is_stmt 1 view .LVU343
 1035 0194 13A8     		add	r0, sp, #76
 1036 0196 FFF7FEFF 		bl	_StoreChar
 1037              	.LVL111:
 444:ARM_SEGGER_RTT/SEGGER_RTT_printf.c ****         }
 1038              		.loc 1 444 19 view .LVU344
 444:ARM_SEGGER_RTT/SEGGER_RTT_printf.c ****         }
 1039              		.loc 1 444 30 is_stmt 0 view .LVU345
 1040 019a 169B     		ldr	r3, [sp, #88]
 444:ARM_SEGGER_RTT/SEGGER_RTT_printf.c ****         }
 1041              		.loc 1 444 11 view .LVU346
 1042 019c 002B     		cmp	r3, #0
 1043 019e F5DA     		bge	.L80
 1044 01a0 C0E7     		b	.L72
 1045              	.LVL112:
 1046              	.L77:
 444:ARM_SEGGER_RTT/SEGGER_RTT_printf.c ****         }
 1047              		.loc 1 444 11 view .LVU347
 1048              	.LBE3:
 448:ARM_SEGGER_RTT/SEGGER_RTT_printf.c ****         _PrintUnsigned(&BufferDesc, (unsigned)v, 16u, 8u, 8u, 0u);
 1049              		.loc 1 448 9 is_stmt 1 view .LVU348
 448:ARM_SEGGER_RTT/SEGGER_RTT_printf.c ****         _PrintUnsigned(&BufferDesc, (unsigned)v, 16u, 8u, 8u, 0u);
 1050              		.loc 1 448 11 is_stmt 0 view .LVU349
 1051 01a2 3368     		ldr	r3, [r6]
 1052              	.LVL113:
 448:ARM_SEGGER_RTT/SEGGER_RTT_printf.c ****         _PrintUnsigned(&BufferDesc, (unsigned)v, 16u, 8u, 8u, 0u);
 1053              		.loc 1 448 11 view .LVU350
 1054 01a4 1A1D     		adds	r2, r3, #4
 1055              	.LVL114:
 448:ARM_SEGGER_RTT/SEGGER_RTT_printf.c ****         _PrintUnsigned(&BufferDesc, (unsigned)v, 16u, 8u, 8u, 0u);
 1056              		.loc 1 448 11 view .LVU351
 1057 01a6 3260     		str	r2, [r6]
 1058 01a8 1968     		ldr	r1, [r3]
 449:ARM_SEGGER_RTT/SEGGER_RTT_printf.c ****         break;
 1059              		.loc 1 449 9 is_stmt 1 view .LVU352
 1060 01aa 0023     		movs	r3, #0
 1061 01ac 0193     		str	r3, [sp, #4]
ARM GAS  /var/folders/mx/xtmnkh9x46d2ktwbhj73try40000gn/T//cc0G0E9P.s 			page 30


 1062 01ae 0823     		movs	r3, #8
 1063 01b0 0093     		str	r3, [sp]
 1064 01b2 1022     		movs	r2, #16
 1065 01b4 13A8     		add	r0, sp, #76
 1066              	.LVL115:
 449:ARM_SEGGER_RTT/SEGGER_RTT_printf.c ****         break;
 1067              		.loc 1 449 9 is_stmt 0 view .LVU353
 1068 01b6 FFF7FEFF 		bl	_PrintUnsigned
 1069              	.LVL116:
 450:ARM_SEGGER_RTT/SEGGER_RTT_printf.c ****       case '%':
 1070              		.loc 1 450 9 is_stmt 1 view .LVU354
 1071 01ba B3E7     		b	.L72
 1072              	.LVL117:
 1073              	.L71:
 452:ARM_SEGGER_RTT/SEGGER_RTT_printf.c ****         break;
 1074              		.loc 1 452 9 view .LVU355
 1075 01bc 2521     		movs	r1, #37
 1076 01be 13A8     		add	r0, sp, #76
 1077              	.LVL118:
 452:ARM_SEGGER_RTT/SEGGER_RTT_printf.c ****         break;
 1078              		.loc 1 452 9 is_stmt 0 view .LVU356
 1079 01c0 FFF7FEFF 		bl	_StoreChar
 1080              	.LVL119:
 453:ARM_SEGGER_RTT/SEGGER_RTT_printf.c ****       default:
 1081              		.loc 1 453 9 is_stmt 1 view .LVU357
 1082 01c4 AEE7     		b	.L72
 1083              	.LVL120:
 1084              	.L55:
 462:ARM_SEGGER_RTT/SEGGER_RTT_printf.c **** 
 463:ARM_SEGGER_RTT/SEGGER_RTT_printf.c ****   if (BufferDesc.ReturnValue > 0) {
 1085              		.loc 1 463 3 view .LVU358
 1086              		.loc 1 463 17 is_stmt 0 view .LVU359
 1087 01c6 169B     		ldr	r3, [sp, #88]
 1088              		.loc 1 463 6 view .LVU360
 1089 01c8 002B     		cmp	r3, #0
 1090 01ca 05DD     		ble	.L83
 464:ARM_SEGGER_RTT/SEGGER_RTT_printf.c ****     //
 465:ARM_SEGGER_RTT/SEGGER_RTT_printf.c ****     // Write remaining data, if any
 466:ARM_SEGGER_RTT/SEGGER_RTT_printf.c ****     //
 467:ARM_SEGGER_RTT/SEGGER_RTT_printf.c ****     if (BufferDesc.Cnt != 0u) {
 1091              		.loc 1 467 5 is_stmt 1 view .LVU361
 1092              		.loc 1 467 19 is_stmt 0 view .LVU362
 1093 01cc 159A     		ldr	r2, [sp, #84]
 1094              		.loc 1 467 8 view .LVU363
 1095 01ce 32B9     		cbnz	r2, .L90
 1096              	.L84:
 468:ARM_SEGGER_RTT/SEGGER_RTT_printf.c ****       SEGGER_RTT_Write(BufferIndex, acBuffer, BufferDesc.Cnt);
 469:ARM_SEGGER_RTT/SEGGER_RTT_printf.c ****     }
 470:ARM_SEGGER_RTT/SEGGER_RTT_printf.c ****     BufferDesc.ReturnValue += (int)BufferDesc.Cnt;
 1097              		.loc 1 470 5 is_stmt 1 view .LVU364
 1098              		.loc 1 470 28 is_stmt 0 view .LVU365
 1099 01d0 159A     		ldr	r2, [sp, #84]
 1100 01d2 169B     		ldr	r3, [sp, #88]
 1101 01d4 1344     		add	r3, r3, r2
 1102 01d6 1693     		str	r3, [sp, #88]
 1103              	.L83:
 471:ARM_SEGGER_RTT/SEGGER_RTT_printf.c ****   }
ARM GAS  /var/folders/mx/xtmnkh9x46d2ktwbhj73try40000gn/T//cc0G0E9P.s 			page 31


 472:ARM_SEGGER_RTT/SEGGER_RTT_printf.c ****   return BufferDesc.ReturnValue;
 1104              		.loc 1 472 3 is_stmt 1 view .LVU366
 473:ARM_SEGGER_RTT/SEGGER_RTT_printf.c **** }
 1105              		.loc 1 473 1 is_stmt 0 view .LVU367
 1106 01d8 1698     		ldr	r0, [sp, #88]
 1107 01da 19B0     		add	sp, sp, #100
 1108              	.LCFI8:
 1109              		.cfi_remember_state
 1110              		.cfi_def_cfa_offset 20
 1111              		@ sp needed
 1112 01dc F0BD     		pop	{r4, r5, r6, r7, pc}
 1113              	.LVL121:
 1114              	.L90:
 1115              	.LCFI9:
 1116              		.cfi_restore_state
 468:ARM_SEGGER_RTT/SEGGER_RTT_printf.c ****       SEGGER_RTT_Write(BufferIndex, acBuffer, BufferDesc.Cnt);
 1117              		.loc 1 468 7 is_stmt 1 view .LVU368
 1118 01de 03A9     		add	r1, sp, #12
 1119 01e0 3846     		mov	r0, r7
 1120 01e2 FFF7FEFF 		bl	SEGGER_RTT_Write
 1121              	.LVL122:
 1122 01e6 F3E7     		b	.L84
 1123              		.cfi_endproc
 1124              	.LFE3:
 1126              		.section	.text.SEGGER_RTT_printf,"ax",%progbits
 1127              		.align	1
 1128              		.global	SEGGER_RTT_printf
 1129              		.syntax unified
 1130              		.thumb
 1131              		.thumb_func
 1132              		.fpu softvfp
 1134              	SEGGER_RTT_printf:
 1135              	.LVL123:
 1136              	.LFB4:
 474:ARM_SEGGER_RTT/SEGGER_RTT_printf.c **** 
 475:ARM_SEGGER_RTT/SEGGER_RTT_printf.c **** /*********************************************************************
 476:ARM_SEGGER_RTT/SEGGER_RTT_printf.c **** *
 477:ARM_SEGGER_RTT/SEGGER_RTT_printf.c **** *       SEGGER_RTT_printf
 478:ARM_SEGGER_RTT/SEGGER_RTT_printf.c **** *
 479:ARM_SEGGER_RTT/SEGGER_RTT_printf.c **** *  Function description
 480:ARM_SEGGER_RTT/SEGGER_RTT_printf.c **** *    Stores a formatted string in SEGGER RTT control block.
 481:ARM_SEGGER_RTT/SEGGER_RTT_printf.c **** *    This data is read by the host.
 482:ARM_SEGGER_RTT/SEGGER_RTT_printf.c **** *
 483:ARM_SEGGER_RTT/SEGGER_RTT_printf.c **** *  Parameters
 484:ARM_SEGGER_RTT/SEGGER_RTT_printf.c **** *    BufferIndex  Index of "Up"-buffer to be used. (e.g. 0 for "Terminal")
 485:ARM_SEGGER_RTT/SEGGER_RTT_printf.c **** *    sFormat      Pointer to format string, followed by the arguments for conversion
 486:ARM_SEGGER_RTT/SEGGER_RTT_printf.c **** *
 487:ARM_SEGGER_RTT/SEGGER_RTT_printf.c **** *  Return values
 488:ARM_SEGGER_RTT/SEGGER_RTT_printf.c **** *    >= 0:  Number of bytes which have been stored in the "Up"-buffer.
 489:ARM_SEGGER_RTT/SEGGER_RTT_printf.c **** *     < 0:  Error
 490:ARM_SEGGER_RTT/SEGGER_RTT_printf.c **** *
 491:ARM_SEGGER_RTT/SEGGER_RTT_printf.c **** *  Notes
 492:ARM_SEGGER_RTT/SEGGER_RTT_printf.c **** *    (1) Conversion specifications have following syntax:
 493:ARM_SEGGER_RTT/SEGGER_RTT_printf.c **** *          %[flags][FieldWidth][.Precision]ConversionSpecifier
 494:ARM_SEGGER_RTT/SEGGER_RTT_printf.c **** *    (2) Supported flags:
 495:ARM_SEGGER_RTT/SEGGER_RTT_printf.c **** *          -: Left justify within the field width
 496:ARM_SEGGER_RTT/SEGGER_RTT_printf.c **** *          +: Always print sign extension for signed conversions
ARM GAS  /var/folders/mx/xtmnkh9x46d2ktwbhj73try40000gn/T//cc0G0E9P.s 			page 32


 497:ARM_SEGGER_RTT/SEGGER_RTT_printf.c **** *          0: Pad with 0 instead of spaces. Ignored when using '-'-flag or precision
 498:ARM_SEGGER_RTT/SEGGER_RTT_printf.c **** *        Supported conversion specifiers:
 499:ARM_SEGGER_RTT/SEGGER_RTT_printf.c **** *          c: Print the argument as one char
 500:ARM_SEGGER_RTT/SEGGER_RTT_printf.c **** *          d: Print the argument as a signed integer
 501:ARM_SEGGER_RTT/SEGGER_RTT_printf.c **** *          u: Print the argument as an unsigned integer
 502:ARM_SEGGER_RTT/SEGGER_RTT_printf.c **** *          x: Print the argument as an hexadecimal integer
 503:ARM_SEGGER_RTT/SEGGER_RTT_printf.c **** *          s: Print the string pointed to by the argument
 504:ARM_SEGGER_RTT/SEGGER_RTT_printf.c **** *          p: Print the argument as an 8-digit hexadecimal integer. (Argument shall be a pointer to
 505:ARM_SEGGER_RTT/SEGGER_RTT_printf.c **** */
 506:ARM_SEGGER_RTT/SEGGER_RTT_printf.c **** int SEGGER_RTT_printf(unsigned BufferIndex, const char * sFormat, ...) {
 1137              		.loc 1 506 72 view -0
 1138              		.cfi_startproc
 1139              		@ args = 4, pretend = 12, frame = 8
 1140              		@ frame_needed = 0, uses_anonymous_args = 1
 1141              		.loc 1 506 72 is_stmt 0 view .LVU370
 1142 0000 0EB4     		push	{r1, r2, r3}
 1143              	.LCFI10:
 1144              		.cfi_def_cfa_offset 12
 1145              		.cfi_offset 1, -12
 1146              		.cfi_offset 2, -8
 1147              		.cfi_offset 3, -4
 1148 0002 00B5     		push	{lr}
 1149              	.LCFI11:
 1150              		.cfi_def_cfa_offset 16
 1151              		.cfi_offset 14, -16
 1152 0004 82B0     		sub	sp, sp, #8
 1153              	.LCFI12:
 1154              		.cfi_def_cfa_offset 24
 1155 0006 03AB     		add	r3, sp, #12
 1156 0008 53F8041B 		ldr	r1, [r3], #4
 507:ARM_SEGGER_RTT/SEGGER_RTT_printf.c ****   int r;
 1157              		.loc 1 507 3 is_stmt 1 view .LVU371
 508:ARM_SEGGER_RTT/SEGGER_RTT_printf.c ****   va_list ParamList;
 1158              		.loc 1 508 3 view .LVU372
 509:ARM_SEGGER_RTT/SEGGER_RTT_printf.c **** 
 510:ARM_SEGGER_RTT/SEGGER_RTT_printf.c ****   va_start(ParamList, sFormat);
 1159              		.loc 1 510 3 view .LVU373
 1160 000c 0193     		str	r3, [sp, #4]
 511:ARM_SEGGER_RTT/SEGGER_RTT_printf.c ****   r = SEGGER_RTT_vprintf(BufferIndex, sFormat, &ParamList);
 1161              		.loc 1 511 3 view .LVU374
 1162              		.loc 1 511 7 is_stmt 0 view .LVU375
 1163 000e 01AA     		add	r2, sp, #4
 1164 0010 FFF7FEFF 		bl	SEGGER_RTT_vprintf
 1165              	.LVL124:
 512:ARM_SEGGER_RTT/SEGGER_RTT_printf.c ****   va_end(ParamList);
 1166              		.loc 1 512 3 is_stmt 1 view .LVU376
 513:ARM_SEGGER_RTT/SEGGER_RTT_printf.c ****   return r;
 1167              		.loc 1 513 3 view .LVU377
 514:ARM_SEGGER_RTT/SEGGER_RTT_printf.c **** }
 1168              		.loc 1 514 1 is_stmt 0 view .LVU378
 1169 0014 02B0     		add	sp, sp, #8
 1170              	.LCFI13:
 1171              		.cfi_def_cfa_offset 16
 1172              		@ sp needed
 1173 0016 5DF804EB 		ldr	lr, [sp], #4
 1174              	.LCFI14:
 1175              		.cfi_restore 14
ARM GAS  /var/folders/mx/xtmnkh9x46d2ktwbhj73try40000gn/T//cc0G0E9P.s 			page 33


 1176              		.cfi_def_cfa_offset 12
 1177 001a 03B0     		add	sp, sp, #12
 1178              	.LCFI15:
 1179              		.cfi_restore 3
 1180              		.cfi_restore 2
 1181              		.cfi_restore 1
 1182              		.cfi_def_cfa_offset 0
 1183 001c 7047     		bx	lr
 1184              		.cfi_endproc
 1185              	.LFE4:
 1187              		.section	.rodata._aV2C.4908,"a"
 1188              		.align	2
 1189              		.set	.LANCHOR0,. + 0
 1192              	_aV2C.4908:
 1193 0000 30313233 		.ascii	"0123456789ABCDEF"
 1193      34353637 
 1193      38394142 
 1193      43444546 
 1194              		.text
 1195              	.Letext0:
 1196              		.file 2 "/opt/gcc-arm-none-eabi-9-2020-q2-update/lib/gcc/arm-none-eabi/9.3.1/include/stddef.h"
 1197              		.file 3 "/opt/gcc-arm-none-eabi-9-2020-q2-update/arm-none-eabi/include/sys/_types.h"
 1198              		.file 4 "/opt/gcc-arm-none-eabi-9-2020-q2-update/arm-none-eabi/include/sys/reent.h"
 1199              		.file 5 "/opt/gcc-arm-none-eabi-9-2020-q2-update/arm-none-eabi/include/sys/lock.h"
 1200              		.file 6 "/opt/gcc-arm-none-eabi-9-2020-q2-update/arm-none-eabi/include/stdlib.h"
 1201              		.file 7 "/opt/gcc-arm-none-eabi-9-2020-q2-update/lib/gcc/arm-none-eabi/9.3.1/include/stdarg.h"
 1202              		.file 8 "<built-in>"
 1203              		.file 9 "ARM_SEGGER_RTT/SEGGER_RTT.h"
ARM GAS  /var/folders/mx/xtmnkh9x46d2ktwbhj73try40000gn/T//cc0G0E9P.s 			page 34

